Certificate:
    Data:
        Version: 3 (0x2)
        Serial Number: 380 (0x17c)
        Signature Algorithm: sha1WithRSAEncryption
        Issuer: C=UG, L=Tropic, O=http://slash.slash.edu:7656/testing, OU=Relaxation, CN=the slash CA
        Validity
            Not Before: Dec 15 22:24:52 2011 GMT
            Not After : Aug 23 22:24:52 2025 GMT
        Subject: C=UG, L=Tropic, O=Utopia, OU=Chilling, CN=slash client with bad DN
        Subject Public Key Info:
            Public Key Algorithm: rsaEncryption
            RSA Public Key: (1024 bit)
                Modulus (1024 bit):
                    00:c8:be:14:b2:0e:32:74:49:8e:9a:40:47:d8:5b:
                    68:71:fb:a8:e5:52:99:7b:82:ea:52:21:b3:95:02:
                    eb:0a:62:23:27:a8:7b:91:2c:96:db:28:8c:14:d4:
                    a9:e2:cc:99:dc:ab:96:29:79:79:d0:b2:46:59:6a:
                    a0:95:be:ae:ca:de:ef:cf:a6:f9:2d:18:87:23:f1:
                    f9:4d:5f:22:00:ec:38:af:2b:99:30:39:71:bc:a2:
                    e8:d7:b5:99:ee:f4:c2:25:38:f9:81:dc:b6:f7:5c:
                    79:f4:10:e4:16:9f:5b:b3:bf:38:e4:49:e4:8a:76:
                    f7:6a:c4:c7:fc:55:00:e5:01
                Exponent: 65537 (0x10001)
        X509v3 extensions:
            Netscape Cert Type: 
                SSL Client, S/MIME
            Netscape Comment: 
                OpenSSL Generated Client Certificate
    Signature Algorithm: sha1WithRSAEncryption
        80:0d:40:ee:51:a9:2f:da:27:33:ed:68:c9:15:14:73:60:dd:
        e7:b3:85:77:9c:4e:f3:07:fa:a8:70:e5:66:38:24:93:6d:f0:
        23:e0:e7:2a:5d:58:7f:4b:7a:4c:54:cc:8b:9a:7a:1e:90:6e:
        04:77:20:71:94:e8:56:af:2d:22:0e:d6:91:36:32:2a:22:95:
        7e:eb:fb:3b:80:e8:66:f2:a5:9c:60:dd:c8:3e:c3:07:34:ef:
        5e:31:48:62:4e:a5:80:d7:28:b0:45:70:0d:b7:f7:c2:d4:e2:
        c0:5c:50:2c:29:c9:6c:8d:e2:15:a4:7f:c1:5c:c9:e5:05:d7:
        c1:d8
-----BEGIN CERTIFICATE-----
MIICnjCCAgegAwIBAgICAXwwDQYJKoZIhvcNAQEFBQAweDELMAkGA1UEBhMCVUcx
DzANBgNVBAcTBlRyb3BpYzEsMCoGA1UEChMjaHR0cDovL3NsYXNoLnNsYXNoLmVk
dTo3NjU2L3Rlc3RpbmcxEzARBgNVBAsTClJlbGF4YXRpb24xFTATBgNVBAMTDHRo
ZSBzbGFzaCBDQTAeFw0xMTEyMTUyMjI0NTJaFw0yNTA4MjMyMjI0NTJaMGUxCzAJ
BgNVBAYTAlVHMQ8wDQYDVQQHEwZUcm9waWMxDzANBgNVBAoTBlV0b3BpYTERMA8G
A1UECxMIQ2hpbGxpbmcxITAfBgNVBAMTGHNsYXNoIGNsaWVudCB3aXRoIGJhZCBE
TjCBnzANBgkqhkiG9w0BAQEFAAOBjQAwgYkCgYEAyL4Usg4ydEmOmkBH2Ftocfuo
5VKZe4LqUiGzlQLrCmIjJ6h7kSyW2yiMFNSp4syZ3KuWKXl50LJGWWqglb6uyt7v
z6b5LRiHI/H5TV8iAOw4ryuZMDlxvKLo17WZ7vTCJTj5gdy291x59BDkFp9bs784
5Enkinb3asTH/FUA5QECAwEAAaNKMEgwEQYJYIZIAYb4QgEBBAQDAgWgMDMGCWCG
SAGG+EIBDQQmFiRPcGVuU1NMIEdlbmVyYXRlZCBDbGllbnQgQ2VydGlmaWNhdGUw
DQYJKoZIhvcNAQEFBQADgYEAgA1A7lGpL9onM+1oyRUUc2Dd57OFd5xO8wf6qHDl
Zjgkk23wI+DnKl1Yf0t6TFTMi5p6HpBuBHcgcZToVq8tIg7WkTYyKiKVfuv7O4Do
ZvKlnGDdyD7DBzTvXjFIYk6lgNcosEVwDbf3wtTiwFxQLCnJbI3iFaR/wVzJ5QXX
wdg=
-----END CERTIFICATE-----
