Certificate:
    Data:
        Version: 3 (0x2)
        Serial Number: 374 (0x176)
        Signature Algorithm: sha1WithRSAEncryption
        Issuer: C=UG, L=Tropic, O=http://slash.slash.edu:7656/testing, OU=Relaxation, CN=the slash CA
        Validity
            Not Before: Dec 15 22:24:49 2011 GMT
            Not After : Aug 23 22:24:49 2025 GMT
        Subject: C=UG, L=Tropic, O=Utopia, OU=Relaxation, CN=slash client
        Subject Public Key Info:
            Public Key Algorithm: rsaEncryption
            RSA Public Key: (1024 bit)
                Modulus (1024 bit):
                    00:b7:7c:28:86:3e:86:61:6a:84:99:cc:00:0e:f8:
                    ee:44:7d:3d:1c:ba:db:00:02:55:8a:6f:95:44:c1:
                    56:7e:79:89:37:b7:96:3c:56:d1:df:c8:16:ea:68:
                    6e:62:5f:ea:e0:4c:03:d9:8c:26:64:c3:2a:91:59:
                    0e:5c:90:d8:42:e1:fe:be:04:f3:90:04:c5:57:5d:
                    8c:78:12:af:61:4e:d7:d7:b7:f5:eb:c8:bf:8a:29:
                    4b:b5:7b:33:d1:f1:26:ea:5c:b3:f9:7c:f9:8f:59:
                    db:b6:43:5f:91:35:3a:1d:ee:2b:06:2c:a0:d7:ec:
                    34:dc:9c:89:20:79:df:c1:bb
                Exponent: 65537 (0x10001)
        X509v3 extensions:
            Netscape Cert Type: 
                SSL Client, S/MIME
            Netscape Comment: 
                OpenSSL Generated Client Certificate
    Signature Algorithm: sha1WithRSAEncryption
        1c:75:12:cc:d8:c3:47:30:dc:28:ec:4a:f4:61:5b:95:76:30:
        ce:ec:ee:b6:4e:19:44:26:30:b8:e7:d7:50:52:fd:8f:94:dc:
        69:75:c0:83:98:b9:9f:8d:8a:03:ac:d0:88:3f:0e:74:f9:e0:
        16:26:0b:79:03:70:f9:f9:cf:41:fb:93:54:35:e0:eb:5d:76:
        0f:22:31:1c:8c:08:e6:f2:67:a5:c6:67:1c:55:61:6d:68:6a:
        45:67:82:03:d9:51:34:27:51:e0:ec:f1:54:73:e0:d5:f2:3c:
        e2:cf:3a:c5:f0:a2:29:2b:b3:77:f1:1c:50:68:24:52:f2:4d:
        3e:50
-----BEGIN CERTIFICATE-----
MIIClDCCAf2gAwIBAgICAXYwDQYJKoZIhvcNAQEFBQAweDELMAkGA1UEBhMCVUcx
DzANBgNVBAcTBlRyb3BpYzEsMCoGA1UEChMjaHR0cDovL3NsYXNoLnNsYXNoLmVk
dTo3NjU2L3Rlc3RpbmcxEzARBgNVBAsTClJlbGF4YXRpb24xFTATBgNVBAMTDHRo
ZSBzbGFzaCBDQTAeFw0xMTEyMTUyMjI0NDlaFw0yNTA4MjMyMjI0NDlaMFsxCzAJ
BgNVBAYTAlVHMQ8wDQYDVQQHEwZUcm9waWMxDzANBgNVBAoTBlV0b3BpYTETMBEG
A1UECxMKUmVsYXhhdGlvbjEVMBMGA1UEAxMMc2xhc2ggY2xpZW50MIGfMA0GCSqG
SIb3DQEBAQUAA4GNADCBiQKBgQC3fCiGPoZhaoSZzAAO+O5EfT0cutsAAlWKb5VE
wVZ+eYk3t5Y8VtHfyBbqaG5iX+rgTAPZjCZkwyqRWQ5ckNhC4f6+BPOQBMVXXYx4
Eq9hTtfXt/XryL+KKUu1ezPR8SbqXLP5fPmPWdu2Q1+RNTod7isGLKDX7DTcnIkg
ed/BuwIDAQABo0owSDARBglghkgBhvhCAQEEBAMCBaAwMwYJYIZIAYb4QgENBCYW
JE9wZW5TU0wgR2VuZXJhdGVkIENsaWVudCBDZXJ0aWZpY2F0ZTANBgkqhkiG9w0B
AQUFAAOBgQAcdRLM2MNHMNwo7Er0YVuVdjDO7O62ThlEJjC459dQUv2PlNxpdcCD
mLmfjYoDrNCIPw50+eAWJgt5A3D5+c9B+5NUNeDrXXYPIjEcjAjm8melxmccVWFt
aGpFZ4ID2VE0J1Hg7PFUc+DV8jzizzrF8KIpK7N38RxQaCRS8k0+UA==
-----END CERTIFICATE-----
