Certificate:
    Data:
        Version: 3 (0x2)
        Serial Number: 378 (0x17a)
        Signature Algorithm: sha384WithRSAEncryption
        Issuer: C=UG, L=Tropic, O=http://slash.slash.edu:7656/testing, OU=Relaxation, CN=the slash CA
        Validity
            Not Before: Dec 15 22:24:52 2011 GMT
            Not After : Aug 23 22:24:52 2025 GMT
        Subject: C=UG, L=Tropic, O=Utopia, OU=Relaxation, CN=slash client with sha384 hash
        Subject Public Key Info:
            Public Key Algorithm: rsaEncryption
            RSA Public Key: (1024 bit)
                Modulus (1024 bit):
                    00:ac:95:17:59:5f:4a:a6:f4:27:ac:20:8f:e5:c7:
                    f1:32:59:7f:c1:70:40:ca:34:16:dc:45:fd:d5:6e:
                    91:c7:f8:0b:80:c3:ba:b5:a7:cc:16:6c:56:2b:88:
                    8b:4c:35:ce:40:51:72:14:55:39:a2:9e:ab:83:7f:
                    03:3f:d3:66:50:28:8b:a4:1a:83:b0:06:ac:34:14:
                    3e:b8:42:2e:55:95:1c:95:be:cd:d6:5d:4b:74:8b:
                    cb:59:96:03:66:cc:ba:60:a4:09:38:18:60:30:a0:
                    9e:f6:db:3e:97:03:d8:ac:15:d8:12:db:3f:0e:a3:
                    7d:2a:37:ff:fa:bb:dd:90:29
                Exponent: 65537 (0x10001)
        X509v3 extensions:
            Netscape Cert Type: 
                SSL Client, S/MIME
            Netscape Comment: 
                OpenSSL Generated Client Certificate
    Signature Algorithm: sha384WithRSAEncryption
        ba:08:b1:9d:97:2c:0f:a6:77:2a:81:8a:ce:21:66:0b:f0:05:
        42:8f:15:b9:a7:cd:ee:bb:7d:09:75:cb:28:7e:b4:f5:e1:23:
        94:8c:bf:6c:53:77:18:e1:78:05:bb:8a:e4:87:6b:87:cf:32:
        e5:c3:74:11:4b:1d:59:25:c6:1a:e0:69:73:d2:53:0e:58:38:
        e6:04:82:70:fa:e6:e1:f6:21:f6:52:7f:90:2e:0d:29:06:6f:
        16:65:8e:15:f2:75:99:7f:6d:77:0c:91:50:ee:6e:6c:0b:06:
        7e:06:0b:73:be:e5:01:bd:d3:1b:d6:c6:b5:44:70:ec:15:a0:
        d2:90
-----BEGIN CERTIFICATE-----
MIICpTCCAg6gAwIBAgICAXowDQYJKoZIhvcNAQEMBQAweDELMAkGA1UEBhMCVUcx
DzANBgNVBAcTBlRyb3BpYzEsMCoGA1UEChMjaHR0cDovL3NsYXNoLnNsYXNoLmVk
dTo3NjU2L3Rlc3RpbmcxEzARBgNVBAsTClJlbGF4YXRpb24xFTATBgNVBAMTDHRo
ZSBzbGFzaCBDQTAeFw0xMTEyMTUyMjI0NTJaFw0yNTA4MjMyMjI0NTJaMGwxCzAJ
BgNVBAYTAlVHMQ8wDQYDVQQHEwZUcm9waWMxDzANBgNVBAoTBlV0b3BpYTETMBEG
A1UECxMKUmVsYXhhdGlvbjEmMCQGA1UEAxMdc2xhc2ggY2xpZW50IHdpdGggc2hh
Mzg0IGhhc2gwgZ8wDQYJKoZIhvcNAQEBBQADgY0AMIGJAoGBAKyVF1lfSqb0J6wg
j+XH8TJZf8FwQMo0FtxF/dVukcf4C4DDurWnzBZsViuIi0w1zkBRchRVOaKeq4N/
Az/TZlAoi6Qag7AGrDQUPrhCLlWVHJW+zdZdS3SLy1mWA2bMumCkCTgYYDCgnvbb
PpcD2KwV2BLbPw6jfSo3//q73ZApAgMBAAGjSjBIMBEGCWCGSAGG+EIBAQQEAwIF
oDAzBglghkgBhvhCAQ0EJhYkT3BlblNTTCBHZW5lcmF0ZWQgQ2xpZW50IENlcnRp
ZmljYXRlMA0GCSqGSIb3DQEBDAUAA4GBALoIsZ2XLA+mdyqBis4hZgvwBUKPFbmn
ze67fQl1yyh+tPXhI5SMv2xTdxjheAW7iuSHa4fPMuXDdBFLHVklxhrgaXPSUw5Y
OOYEgnD65uH2IfZSf5AuDSkGbxZljhXydZl/bXcMkVDubmwLBn4GC3O+5QG90xvW
xrVEcOwVoNKQ
-----END CERTIFICATE-----
