Certificate:
    Data:
        Version: 3 (0x2)
        Serial Number: 376 (0x178)
        Signature Algorithm: sha224WithRSAEncryption
        Issuer: C=UG, L=Tropic, O=http://slash.slash.edu:7656/testing, OU=Relaxation, CN=the slash CA
        Validity
            Not Before: Dec 15 22:24:51 2011 GMT
            Not After : Aug 23 22:24:51 2025 GMT
        Subject: C=UG, L=Tropic, O=Utopia, OU=Relaxation, CN=slash client with sha224 hash
        Subject Public Key Info:
            Public Key Algorithm: rsaEncryption
            RSA Public Key: (1024 bit)
                Modulus (1024 bit):
                    00:e7:df:90:1c:14:68:d8:cd:76:a6:79:8b:9d:64:
                    a1:38:03:a4:84:ad:68:d9:1c:59:cc:6f:fe:96:70:
                    af:80:53:50:88:83:ec:c2:1a:61:b8:ae:af:f2:39:
                    5b:ff:f1:8f:a8:ea:57:67:a5:d3:20:c8:45:2e:dd:
                    17:56:2a:e9:f5:04:2c:0c:87:fe:a7:ed:5a:8a:8f:
                    e6:fe:9c:85:c1:43:15:79:de:4e:bd:10:ba:1a:c2:
                    bd:37:8c:7a:03:0f:ee:98:dc:0f:1d:83:e4:cf:1c:
                    fd:57:46:92:d6:78:46:b3:fb:9f:69:27:76:39:d0:
                    73:67:14:17:94:93:ff:42:69
                Exponent: 65537 (0x10001)
        X509v3 extensions:
            Netscape Cert Type: 
                SSL Client, S/MIME
            Netscape Comment: 
                OpenSSL Generated Client Certificate
    Signature Algorithm: sha224WithRSAEncryption
        57:7e:f9:85:49:a1:ee:5b:0e:79:cb:bc:ca:0d:be:8a:14:8f:
        38:28:ff:23:50:5e:3d:c1:df:88:56:1b:b6:84:61:b8:24:78:
        bb:70:03:c8:ae:94:77:cd:74:b0:fc:11:ee:c1:cd:5b:e4:0a:
        fe:2c:ff:c4:a6:35:79:6b:54:03:74:f7:89:09:9d:f4:d3:a5:
        1a:00:88:be:09:fc:10:29:ca:5c:94:a8:c5:bb:66:77:53:21:
        0a:87:b6:b4:1d:af:f6:e1:d1:04:bf:3c:73:d9:b2:70:fc:86:
        09:a4:4b:83:a0:72:e0:a6:68:1f:9b:2c:f3:b0:4e:5a:12:87:
        58:a7
-----BEGIN CERTIFICATE-----
MIICpTCCAg6gAwIBAgICAXgwDQYJKoZIhvcNAQEOBQAweDELMAkGA1UEBhMCVUcx
DzANBgNVBAcTBlRyb3BpYzEsMCoGA1UEChMjaHR0cDovL3NsYXNoLnNsYXNoLmVk
dTo3NjU2L3Rlc3RpbmcxEzARBgNVBAsTClJlbGF4YXRpb24xFTATBgNVBAMTDHRo
ZSBzbGFzaCBDQTAeFw0xMTEyMTUyMjI0NTFaFw0yNTA4MjMyMjI0NTFaMGwxCzAJ
BgNVBAYTAlVHMQ8wDQYDVQQHEwZUcm9waWMxDzANBgNVBAoTBlV0b3BpYTETMBEG
A1UECxMKUmVsYXhhdGlvbjEmMCQGA1UEAxMdc2xhc2ggY2xpZW50IHdpdGggc2hh
MjI0IGhhc2gwgZ8wDQYJKoZIhvcNAQEBBQADgY0AMIGJAoGBAOffkBwUaNjNdqZ5
i51koTgDpIStaNkcWcxv/pZwr4BTUIiD7MIaYbiur/I5W//xj6jqV2el0yDIRS7d
F1Yq6fUELAyH/qftWoqP5v6chcFDFXneTr0QuhrCvTeMegMP7pjcDx2D5M8c/VdG
ktZ4RrP7n2kndjnQc2cUF5ST/0JpAgMBAAGjSjBIMBEGCWCGSAGG+EIBAQQEAwIF
oDAzBglghkgBhvhCAQ0EJhYkT3BlblNTTCBHZW5lcmF0ZWQgQ2xpZW50IENlcnRp
ZmljYXRlMA0GCSqGSIb3DQEBDgUAA4GBAFd++YVJoe5bDnnLvMoNvooUjzgo/yNQ
Xj3B34hWG7aEYbgkeLtwA8iulHfNdLD8Ee7BzVvkCv4s/8SmNXlrVAN094kJnfTT
pRoAiL4J/BApylyUqMW7ZndTIQqHtrQdr/bh0QS/PHPZsnD8hgmkS4OgcuCmaB+b
LPOwTloSh1in
-----END CERTIFICATE-----
