Certificate:
    Data:
        Version: 3 (0x2)
        Serial Number: 376 (0x178)
        Signature Algorithm: md5WithRSAEncryption
        Issuer: C=UG, L=Tropic, O=Utopia, OU=Relaxation, CN=the subsubca CA
        Validity
            Not Before: Dec 15 22:24:46 2011 GMT
            Not After : Aug 23 22:24:46 2025 GMT
        Subject: C=UG, L=Tropic, O=Utopia, OU=Relaxation, CN=subsubca client with md5 hash
        Subject Public Key Info:
            Public Key Algorithm: rsaEncryption
            RSA Public Key: (1024 bit)
                Modulus (1024 bit):
                    00:cb:71:b6:e3:4c:7a:12:22:ce:c0:78:9b:69:39:
                    5a:d0:2c:30:3f:16:c3:e1:78:7e:63:5a:4c:02:46:
                    14:5d:6a:64:59:3e:95:06:f3:4f:5c:ef:6a:ee:ed:
                    d3:ff:58:75:2d:da:ae:fa:2d:47:36:7a:e3:1f:6a:
                    cd:7a:84:8a:ac:7f:f2:91:c3:fb:59:33:ce:93:61:
                    66:96:f3:5b:a7:47:fa:22:45:f3:22:9a:7c:56:6d:
                    df:58:cf:6c:bb:5e:c1:80:79:54:48:3c:fb:9d:a3:
                    be:e7:55:76:0a:bd:78:21:36:57:8b:8f:a3:46:46:
                    ca:52:17:1d:81:c1:4b:69:df
                Exponent: 65537 (0x10001)
        X509v3 extensions:
            Netscape Cert Type: 
                SSL Client, S/MIME
            Netscape Comment: 
                OpenSSL Generated Client Certificate
    Signature Algorithm: md5WithRSAEncryption
        b8:61:c8:05:4f:9f:12:09:b8:1b:dc:27:b1:31:6c:67:5d:54:
        9b:02:58:1e:ad:d5:7e:42:72:09:b8:e5:72:2b:9a:3c:6a:77:
        c9:7c:51:ac:9e:32:68:b6:81:dd:19:c4:28:bb:4a:ca:27:c0:
        5e:b1:21:ee:a4:44:d9:4d:57:eb:7e:44:f1:f2:4b:2d:ec:39:
        2e:3b:a4:1f:c0:b5:40:8b:9b:fb:2e:d5:55:12:39:3e:82:0d:
        85:41:4a:27:31:f7:1b:06:02:49:60:1e:26:c6:58:83:6a:69:
        94:a1:40:9a:9c:c0:0b:45:3b:b2:f2:81:81:03:1b:5a:88:b5:
        0b:4a
-----BEGIN CERTIFICATE-----
MIICizCCAfSgAwIBAgICAXgwDQYJKoZIhvcNAQEEBQAwXjELMAkGA1UEBhMCVUcx
DzANBgNVBAcTBlRyb3BpYzEPMA0GA1UEChMGVXRvcGlhMRMwEQYDVQQLEwpSZWxh
eGF0aW9uMRgwFgYDVQQDEw90aGUgc3Vic3ViY2EgQ0EwHhcNMTExMjE1MjIyNDQ2
WhcNMjUwODIzMjIyNDQ2WjBsMQswCQYDVQQGEwJVRzEPMA0GA1UEBxMGVHJvcGlj
MQ8wDQYDVQQKEwZVdG9waWExEzARBgNVBAsTClJlbGF4YXRpb24xJjAkBgNVBAMT
HXN1YnN1YmNhIGNsaWVudCB3aXRoIG1kNSBoYXNoMIGfMA0GCSqGSIb3DQEBAQUA
A4GNADCBiQKBgQDLcbbjTHoSIs7AeJtpOVrQLDA/FsPheH5jWkwCRhRdamRZPpUG
809c72ru7dP/WHUt2q76LUc2euMfas16hIqsf/KRw/tZM86TYWaW81unR/oiRfMi
mnxWbd9Yz2y7XsGAeVRIPPudo77nVXYKvXghNleLj6NGRspSFx2BwUtp3wIDAQAB
o0owSDARBglghkgBhvhCAQEEBAMCBaAwMwYJYIZIAYb4QgENBCYWJE9wZW5TU0wg
R2VuZXJhdGVkIENsaWVudCBDZXJ0aWZpY2F0ZTANBgkqhkiG9w0BAQQFAAOBgQC4
YcgFT58SCbgb3CexMWxnXVSbAlgerdV+QnIJuOVyK5o8anfJfFGsnjJotoHdGcQo
u0rKJ8BesSHupETZTVfrfkTx8kst7DkuO6QfwLVAi5v7LtVVEjk+gg2FQUonMfcb
BgJJYB4mxliDammUoUCanMALRTuy8oGBAxtaiLULSg==
-----END CERTIFICATE-----
