Certificate:
    Data:
        Version: 3 (0x2)
        Serial Number: 380 (0x17c)
        Signature Algorithm: sha512WithRSAEncryption
        Issuer: C=UG, L=Tropic, O=Utopia, OU=Relaxation, CN=the subsubca CA
        Validity
            Not Before: Dec 15 22:24:47 2011 GMT
            Not After : Aug 23 22:24:47 2025 GMT
        Subject: C=UG, L=Tropic, O=Utopia, OU=Relaxation, CN=subsubca client with sha512 hash
        Subject Public Key Info:
            Public Key Algorithm: rsaEncryption
            RSA Public Key: (1024 bit)
                Modulus (1024 bit):
                    00:d0:5f:25:bc:86:6f:ce:3c:4a:6b:ed:e3:63:7f:
                    6d:d1:d8:1f:9b:33:38:38:9f:09:b3:2b:21:3a:0e:
                    2a:ce:00:da:db:b8:24:10:69:0d:8e:75:9c:6c:8c:
                    b7:7f:79:e7:e0:b1:e6:d2:9d:f9:e7:9c:55:46:0e:
                    f3:53:40:c1:be:5c:1a:23:d6:06:0c:f0:c3:a8:fc:
                    51:bb:b9:3d:4b:9c:c0:7d:00:f6:72:01:79:da:ae:
                    a7:ad:aa:eb:f0:65:9b:02:5a:f7:74:cf:1b:bb:27:
                    b7:60:21:75:d4:15:f8:b2:dd:86:6b:d7:b2:e8:36:
                    7c:bb:83:86:f0:48:ea:15:5b
                Exponent: 65537 (0x10001)
        X509v3 extensions:
            Netscape Cert Type: 
                SSL Client, S/MIME
            Netscape Comment: 
                OpenSSL Generated Client Certificate
    Signature Algorithm: sha512WithRSAEncryption
        b5:42:c7:2f:4b:d0:19:84:f3:6a:92:e7:44:52:94:61:3c:45:
        91:57:88:dd:dd:42:7a:ba:ea:56:dc:9e:6c:24:e2:32:0c:c7:
        40:2a:b7:e5:37:4c:94:61:1f:5e:76:e5:6a:e2:d1:4e:d9:6a:
        43:fc:38:be:29:6f:c0:cd:71:60:08:2a:bc:ff:b0:a4:28:48:
        a9:ec:61:b7:70:bc:a7:ea:61:1f:14:69:28:bd:05:6c:40:78:
        3b:6b:d0:5b:97:3a:ab:47:89:c1:74:ed:01:45:00:11:c9:f6:
        cd:ad:12:b7:1b:12:5d:f2:1c:61:73:21:28:33:b5:36:1b:88:
        88:66
-----BEGIN CERTIFICATE-----
MIICjjCCAfegAwIBAgICAXwwDQYJKoZIhvcNAQENBQAwXjELMAkGA1UEBhMCVUcx
DzANBgNVBAcTBlRyb3BpYzEPMA0GA1UEChMGVXRvcGlhMRMwEQYDVQQLEwpSZWxh
eGF0aW9uMRgwFgYDVQQDEw90aGUgc3Vic3ViY2EgQ0EwHhcNMTExMjE1MjIyNDQ3
WhcNMjUwODIzMjIyNDQ3WjBvMQswCQYDVQQGEwJVRzEPMA0GA1UEBxMGVHJvcGlj
MQ8wDQYDVQQKEwZVdG9waWExEzARBgNVBAsTClJlbGF4YXRpb24xKTAnBgNVBAMT
IHN1YnN1YmNhIGNsaWVudCB3aXRoIHNoYTUxMiBoYXNoMIGfMA0GCSqGSIb3DQEB
AQUAA4GNADCBiQKBgQDQXyW8hm/OPEpr7eNjf23R2B+bMzg4nwmzKyE6DirOANrb
uCQQaQ2OdZxsjLd/eefgsebSnfnnnFVGDvNTQMG+XBoj1gYM8MOo/FG7uT1LnMB9
APZyAXnarqetquvwZZsCWvd0zxu7J7dgIXXUFfiy3YZr17LoNny7g4bwSOoVWwID
AQABo0owSDARBglghkgBhvhCAQEEBAMCBaAwMwYJYIZIAYb4QgENBCYWJE9wZW5T
U0wgR2VuZXJhdGVkIENsaWVudCBDZXJ0aWZpY2F0ZTANBgkqhkiG9w0BAQ0FAAOB
gQC1QscvS9AZhPNqkudEUpRhPEWRV4jd3UJ6uupW3J5sJOIyDMdAKrflN0yUYR9e
duVq4tFO2WpD/Di+KW/AzXFgCCq8/7CkKEip7GG3cLyn6mEfFGkovQVsQHg7a9Bb
lzqrR4nBdO0BRQARyfbNrRK3GxJd8hxhcyEoM7U2G4iIZg==
-----END CERTIFICATE-----
