Certificate:
    Data:
        Version: 3 (0x2)
        Serial Number: 381 (0x17d)
        Signature Algorithm: sha1WithRSAEncryption
        Issuer: C=UG, L=Tropic, O=Utopia, OU=Relaxation, CN=the subsubca CA
        Validity
            Not Before: Dec 15 22:24:47 2011 GMT
            Not After : Aug 23 22:24:47 2025 GMT
        Subject: C=UG, L=Tropic, O=Utopia, OU=Chilling, CN=subsubca client with bad DN
        Subject Public Key Info:
            Public Key Algorithm: rsaEncryption
            RSA Public Key: (1024 bit)
                Modulus (1024 bit):
                    00:ee:56:58:0c:64:9e:6c:1e:ac:5b:d6:85:98:1f:
                    08:68:f3:88:7e:5e:3b:62:aa:1d:01:bb:0b:29:91:
                    18:ce:12:47:36:80:05:61:d4:72:02:24:4c:70:d0:
                    4c:b8:94:d7:e5:db:f1:a9:02:3e:8c:cf:f7:ff:11:
                    29:ed:a3:2c:06:72:fe:b9:fd:05:21:0c:c4:8e:bc:
                    51:af:2e:e0:f3:73:20:4a:77:08:de:65:76:cc:e7:
                    01:22:ee:26:fc:15:9a:db:ad:89:3a:11:67:26:d5:
                    78:d0:a1:26:6d:95:49:f8:9f:1e:0b:a5:cd:42:23:
                    60:7e:42:29:b4:a8:b3:1e:f9
                Exponent: 65537 (0x10001)
        X509v3 extensions:
            Netscape Cert Type: 
                SSL Client, S/MIME
            Netscape Comment: 
                OpenSSL Generated Client Certificate
    Signature Algorithm: sha1WithRSAEncryption
        a6:17:bf:f8:1a:95:2b:ae:d9:18:05:7c:ab:e7:4a:ca:3c:2f:
        45:47:24:ab:3b:9a:8e:45:d3:2c:c8:e5:2e:70:d3:dc:25:db:
        9b:da:61:26:eb:c4:91:79:98:c1:16:d0:19:d6:11:86:01:54:
        fe:93:05:8d:d1:e5:e0:07:34:bc:70:a8:35:d8:4a:52:32:88:
        bc:f1:6a:3f:84:41:3e:c0:22:bb:f1:92:97:be:0f:42:0c:1b:
        db:49:4f:30:e6:32:a6:91:3c:94:14:25:73:e6:09:0c:07:78:
        30:6b:a6:ad:9c:a6:ed:d5:0d:ed:d7:cb:9c:1f:2f:12:90:04:
        10:bd
-----BEGIN CERTIFICATE-----
MIIChzCCAfCgAwIBAgICAX0wDQYJKoZIhvcNAQEFBQAwXjELMAkGA1UEBhMCVUcx
DzANBgNVBAcTBlRyb3BpYzEPMA0GA1UEChMGVXRvcGlhMRMwEQYDVQQLEwpSZWxh
eGF0aW9uMRgwFgYDVQQDEw90aGUgc3Vic3ViY2EgQ0EwHhcNMTExMjE1MjIyNDQ3
WhcNMjUwODIzMjIyNDQ3WjBoMQswCQYDVQQGEwJVRzEPMA0GA1UEBxMGVHJvcGlj
MQ8wDQYDVQQKEwZVdG9waWExETAPBgNVBAsTCENoaWxsaW5nMSQwIgYDVQQDExtz
dWJzdWJjYSBjbGllbnQgd2l0aCBiYWQgRE4wgZ8wDQYJKoZIhvcNAQEBBQADgY0A
MIGJAoGBAO5WWAxknmwerFvWhZgfCGjziH5eO2KqHQG7CymRGM4SRzaABWHUcgIk
THDQTLiU1+Xb8akCPozP9/8RKe2jLAZy/rn9BSEMxI68Ua8u4PNzIEp3CN5ldszn
ASLuJvwVmtutiToRZybVeNChJm2VSfifHgulzUIjYH5CKbSosx75AgMBAAGjSjBI
MBEGCWCGSAGG+EIBAQQEAwIFoDAzBglghkgBhvhCAQ0EJhYkT3BlblNTTCBHZW5l
cmF0ZWQgQ2xpZW50IENlcnRpZmljYXRlMA0GCSqGSIb3DQEBBQUAA4GBAKYXv/ga
lSuu2RgFfKvnSso8L0VHJKs7mo5F0yzI5S5w09wl25vaYSbrxJF5mMEW0BnWEYYB
VP6TBY3R5eAHNLxwqDXYSlIyiLzxaj+EQT7AIrvxkpe+D0IMG9tJTzDmMqaRPJQU
JXPmCQwHeDBrpq2cpu3VDe3Xy5wfLxKQBBC9
-----END CERTIFICATE-----
