Certificate:
    Data:
        Version: 3 (0x2)
        Serial Number: 379 (0x17b)
        Signature Algorithm: sha384WithRSAEncryption
        Issuer: C=UG, L=Tropic, O=Utopia, OU=Relaxation, CN=the subsubca CA
        Validity
            Not Before: Dec 15 22:24:47 2011 GMT
            Not After : Aug 23 22:24:47 2025 GMT
        Subject: C=UG, L=Tropic, O=Utopia, OU=Relaxation, CN=subsubca client with sha384 hash
        Subject Public Key Info:
            Public Key Algorithm: rsaEncryption
            RSA Public Key: (1024 bit)
                Modulus (1024 bit):
                    00:ae:9c:3c:1d:7a:4f:ca:c2:7c:fe:38:55:3f:3f:
                    99:5d:38:31:61:65:36:7c:cd:5f:fd:6d:cd:20:69:
                    df:93:60:2f:aa:9b:8c:1f:ec:87:df:6f:d4:0d:5d:
                    e7:dd:be:46:0e:3c:aa:2f:52:25:62:87:8b:e5:6a:
                    57:98:85:f7:68:21:8b:1b:f9:86:22:a4:45:6a:ad:
                    a6:ac:c1:77:a3:1f:9c:16:d5:20:63:51:dd:46:9e:
                    70:1c:ff:04:f1:37:50:44:9d:07:8d:0f:ce:cb:bc:
                    4f:0c:8e:65:45:a6:1d:ab:54:28:fc:0e:ca:c3:a6:
                    85:8d:2d:e5:f0:ed:ee:5f:3d
                Exponent: 65537 (0x10001)
        X509v3 extensions:
            Netscape Cert Type: 
                SSL Client, S/MIME
            Netscape Comment: 
                OpenSSL Generated Client Certificate
    Signature Algorithm: sha384WithRSAEncryption
        8f:f2:12:9c:d4:28:ba:41:ce:eb:e0:75:f5:a9:47:35:18:9a:
        91:18:8f:be:51:a3:8c:65:ec:0f:63:85:00:ed:1e:ff:a6:56:
        f0:67:17:4d:a7:49:56:f8:4f:c2:04:f9:29:b9:55:68:a7:8e:
        55:93:a7:a0:67:d1:62:fb:da:60:34:96:7e:f8:65:f7:06:67:
        c9:e9:a8:0a:95:cf:3a:1d:87:d0:22:17:f1:84:fe:ff:f3:ab:
        38:91:ec:b8:5d:0e:6f:a9:4d:a7:ed:4d:e2:bc:bc:d4:bf:70:
        50:41:ec:c8:36:a5:f1:f7:86:6a:31:ed:6f:50:ae:4f:02:be:
        0b:37
-----BEGIN CERTIFICATE-----
MIICjjCCAfegAwIBAgICAXswDQYJKoZIhvcNAQEMBQAwXjELMAkGA1UEBhMCVUcx
DzANBgNVBAcTBlRyb3BpYzEPMA0GA1UEChMGVXRvcGlhMRMwEQYDVQQLEwpSZWxh
eGF0aW9uMRgwFgYDVQQDEw90aGUgc3Vic3ViY2EgQ0EwHhcNMTExMjE1MjIyNDQ3
WhcNMjUwODIzMjIyNDQ3WjBvMQswCQYDVQQGEwJVRzEPMA0GA1UEBxMGVHJvcGlj
MQ8wDQYDVQQKEwZVdG9waWExEzARBgNVBAsTClJlbGF4YXRpb24xKTAnBgNVBAMT
IHN1YnN1YmNhIGNsaWVudCB3aXRoIHNoYTM4NCBoYXNoMIGfMA0GCSqGSIb3DQEB
AQUAA4GNADCBiQKBgQCunDwdek/Kwnz+OFU/P5ldODFhZTZ8zV/9bc0gad+TYC+q
m4wf7Iffb9QNXefdvkYOPKovUiVih4vlaleYhfdoIYsb+YYipEVqraaswXejH5wW
1SBjUd1GnnAc/wTxN1BEnQeND87LvE8MjmVFph2rVCj8DsrDpoWNLeXw7e5fPQID
AQABo0owSDARBglghkgBhvhCAQEEBAMCBaAwMwYJYIZIAYb4QgENBCYWJE9wZW5T
U0wgR2VuZXJhdGVkIENsaWVudCBDZXJ0aWZpY2F0ZTANBgkqhkiG9w0BAQwFAAOB
gQCP8hKc1Ci6Qc7r4HX1qUc1GJqRGI++UaOMZewPY4UA7R7/plbwZxdNp0lW+E/C
BPkpuVVop45Vk6egZ9Fi+9pgNJZ++GX3BmfJ6agKlc86HYfQIhfxhP7/86s4key4
XQ5vqU2n7U3ivLzUv3BQQezINqXx94ZqMe1vUK5PAr4LNw==
-----END CERTIFICATE-----
