Certificate:
    Data:
        Version: 3 (0x2)
        Serial Number: 384 (0x180)
        Signature Algorithm: sha1WithRSAEncryption
        Issuer: C=UG, L=Tropic, O=Utopia, OU=Relaxation, CN=the subsubca CA
        Validity
            Not Before: Dec 15 22:24:48 2011 GMT
            Not After : Aug 23 22:24:48 2025 GMT
        Subject: C=UG, L=Tropic, O=Utopia, OU=Relaxation, CN=subsubca client revoked
        Subject Public Key Info:
            Public Key Algorithm: rsaEncryption
            RSA Public Key: (1024 bit)
                Modulus (1024 bit):
                    00:b0:62:18:17:8a:66:4d:5a:85:92:55:92:1e:06:
                    c0:d2:a4:36:e7:f6:b5:56:c8:ae:ce:35:8d:5a:47:
                    0c:84:df:08:8b:0b:d1:b9:71:ee:7d:18:8b:35:ff:
                    6b:4f:9c:b7:4c:e8:78:91:de:47:ad:63:8c:0e:15:
                    ef:46:3a:c2:b0:c6:96:fc:a1:63:83:fd:fc:e0:66:
                    be:fd:9f:04:6d:e3:f7:37:0d:91:41:61:45:81:3d:
                    2f:4e:68:91:16:d4:81:7a:3e:c8:7a:e4:51:30:ac:
                    83:6a:7f:5d:07:6c:d6:bd:3d:31:8e:bf:d2:fa:ea:
                    fe:a4:b5:9d:9b:ac:16:aa:8b
                Exponent: 65537 (0x10001)
        X509v3 extensions:
            Netscape Cert Type: 
                SSL Client, S/MIME
            Netscape Comment: 
                OpenSSL Generated Client Certificate
    Signature Algorithm: sha1WithRSAEncryption
        90:1a:63:87:e7:cf:a7:e9:42:8a:e6:72:19:de:01:7e:d2:4d:
        ff:22:f4:52:81:30:4d:b1:84:94:c2:48:ce:72:c2:4c:39:92:
        47:4e:14:a1:0b:9c:a7:a7:6a:8c:1c:3a:cb:b5:3a:cf:07:e8:
        77:3f:8e:f5:f9:03:4c:2c:cb:e9:88:02:9a:9d:8b:54:03:d6:
        c8:43:b7:9a:71:7f:ea:a8:2c:85:90:4f:6a:7c:7c:ab:f9:ad:
        3e:06:31:6e:b4:27:97:3c:a0:11:28:bf:39:04:4b:67:d6:90:
        cd:6e:40:31:13:cb:37:71:34:a8:0e:2d:e2:9c:5c:64:0f:5f:
        d2:34
-----BEGIN CERTIFICATE-----
MIIChTCCAe6gAwIBAgICAYAwDQYJKoZIhvcNAQEFBQAwXjELMAkGA1UEBhMCVUcx
DzANBgNVBAcTBlRyb3BpYzEPMA0GA1UEChMGVXRvcGlhMRMwEQYDVQQLEwpSZWxh
eGF0aW9uMRgwFgYDVQQDEw90aGUgc3Vic3ViY2EgQ0EwHhcNMTExMjE1MjIyNDQ4
WhcNMjUwODIzMjIyNDQ4WjBmMQswCQYDVQQGEwJVRzEPMA0GA1UEBxMGVHJvcGlj
MQ8wDQYDVQQKEwZVdG9waWExEzARBgNVBAsTClJlbGF4YXRpb24xIDAeBgNVBAMT
F3N1YnN1YmNhIGNsaWVudCByZXZva2VkMIGfMA0GCSqGSIb3DQEBAQUAA4GNADCB
iQKBgQCwYhgXimZNWoWSVZIeBsDSpDbn9rVWyK7ONY1aRwyE3wiLC9G5ce59GIs1
/2tPnLdM6HiR3ketY4wOFe9GOsKwxpb8oWOD/fzgZr79nwRt4/c3DZFBYUWBPS9O
aJEW1IF6Psh65FEwrINqf10HbNa9PTGOv9L66v6ktZ2brBaqiwIDAQABo0owSDAR
BglghkgBhvhCAQEEBAMCBaAwMwYJYIZIAYb4QgENBCYWJE9wZW5TU0wgR2VuZXJh
dGVkIENsaWVudCBDZXJ0aWZpY2F0ZTANBgkqhkiG9w0BAQUFAAOBgQCQGmOH58+n
6UKK5nIZ3gF+0k3/IvRSgTBNsYSUwkjOcsJMOZJHThShC5ynp2qMHDrLtTrPB+h3
P471+QNMLMvpiAKanYtUA9bIQ7eacX/qqCyFkE9qfHyr+a0+BjFutCeXPKARKL85
BEtn1pDNbkAxE8s3cTSoDi3inFxkD1/SNA==
-----END CERTIFICATE-----
