Certificate:
    Data:
        Version: 3 (0x2)
        Serial Number: 375 (0x177)
        Signature Algorithm: sha1WithRSAEncryption
        Issuer: C=UG, L=Tropic, O=Utopia, OU=Relaxation, CN=the subsubca CA
        Validity
            Not Before: Dec 15 22:24:44 2011 GMT
            Not After : Aug 23 22:24:44 2025 GMT
        Subject: C=UG, L=Tropic, O=Utopia, OU=Relaxation, CN=subsubca client
        Subject Public Key Info:
            Public Key Algorithm: rsaEncryption
            RSA Public Key: (1024 bit)
                Modulus (1024 bit):
                    00:c5:f0:9d:6f:32:64:49:46:8f:e9:72:7d:47:5a:
                    8e:5a:31:65:02:d7:5e:bb:22:e1:e7:3f:af:58:3b:
                    b6:e1:ac:1f:14:ed:92:08:22:f7:a5:5e:8f:ea:6b:
                    50:34:4b:8f:df:ff:14:06:74:8e:2c:d8:23:aa:73:
                    00:b6:53:eb:58:f4:58:d6:bd:e9:36:95:9e:b5:94:
                    74:c9:e4:7b:7b:f1:03:50:f9:ae:e0:13:31:bd:93:
                    67:da:cb:4b:59:d8:c4:77:a7:c3:8a:06:8d:b6:bf:
                    71:2d:f7:7b:ef:c8:c3:3c:ea:ab:a7:2c:a9:3d:06:
                    c7:c4:56:b0:59:4b:8a:98:5f
                Exponent: 65537 (0x10001)
        X509v3 extensions:
            Netscape Cert Type: 
                SSL Client, S/MIME
            Netscape Comment: 
                OpenSSL Generated Client Certificate
    Signature Algorithm: sha1WithRSAEncryption
        63:77:b5:71:ff:33:c0:58:5d:07:6f:98:31:84:e5:78:ce:5a:
        7a:d6:5b:a6:83:16:d0:f3:d5:5d:86:6c:70:bf:90:1b:83:65:
        ad:7a:32:4c:a0:67:0d:e5:c4:2d:38:5c:4d:b8:bf:cf:0c:e7:
        71:d0:f3:92:d8:16:6f:84:ed:64:59:da:a2:40:5a:39:ed:0c:
        c0:00:5e:01:c4:41:37:28:42:7f:f5:e8:ec:2f:3b:2d:ff:c3:
        d0:c9:9f:44:04:28:cf:59:87:97:da:b4:b6:d5:19:7f:a5:6b:
        e3:de:3b:c4:cb:44:9d:1c:cf:67:22:58:7d:5a:e0:4c:1c:ec:
        c8:2c
-----BEGIN CERTIFICATE-----
MIICfTCCAeagAwIBAgICAXcwDQYJKoZIhvcNAQEFBQAwXjELMAkGA1UEBhMCVUcx
DzANBgNVBAcTBlRyb3BpYzEPMA0GA1UEChMGVXRvcGlhMRMwEQYDVQQLEwpSZWxh
eGF0aW9uMRgwFgYDVQQDEw90aGUgc3Vic3ViY2EgQ0EwHhcNMTExMjE1MjIyNDQ0
WhcNMjUwODIzMjIyNDQ0WjBeMQswCQYDVQQGEwJVRzEPMA0GA1UEBxMGVHJvcGlj
MQ8wDQYDVQQKEwZVdG9waWExEzARBgNVBAsTClJlbGF4YXRpb24xGDAWBgNVBAMT
D3N1YnN1YmNhIGNsaWVudDCBnzANBgkqhkiG9w0BAQEFAAOBjQAwgYkCgYEAxfCd
bzJkSUaP6XJ9R1qOWjFlAtdeuyLh5z+vWDu24awfFO2SCCL3pV6P6mtQNEuP3/8U
BnSOLNgjqnMAtlPrWPRY1r3pNpWetZR0yeR7e/EDUPmu4BMxvZNn2stLWdjEd6fD
igaNtr9xLfd778jDPOqrpyypPQbHxFawWUuKmF8CAwEAAaNKMEgwEQYJYIZIAYb4
QgEBBAQDAgWgMDMGCWCGSAGG+EIBDQQmFiRPcGVuU1NMIEdlbmVyYXRlZCBDbGll
bnQgQ2VydGlmaWNhdGUwDQYJKoZIhvcNAQEFBQADgYEAY3e1cf8zwFhdB2+YMYTl
eM5aetZbpoMW0PPVXYZscL+QG4NlrXoyTKBnDeXELThcTbi/zwzncdDzktgWb4Tt
ZFnaokBaOe0MwABeAcRBNyhCf/Xo7C87Lf/D0MmfRAQoz1mHl9q0ttUZf6Vr4947
xMtEnRzPZyJYfVrgTBzsyCw=
-----END CERTIFICATE-----
