To: Pablo.Saiz@cern.ch
Subject: Certificate for lxb2023.cern.ch
From: CERN CA <service-grid-ca@cern.ch>

Certificate:
    Data:
        Version: 3 (0x2)
        Serial Number: 577 (0x241)
        Signature Algorithm: md5WithRSAEncryption
        Issuer: C=CH, O=CERN, OU=GRID, CN=CERN CA
        Validity
            Not Before: Jul 28 14:36:15 2004 GMT
            Not After : Jul 28 14:36:15 2005 GMT
        Subject: C=CH, O=CERN, OU=GRID, CN=lxb2023.cern.ch
        Subject Public Key Info:
            Public Key Algorithm: rsaEncryption
            RSA Public Key: (2048 bit)
                Modulus (2048 bit):
                    00:d9:2f:8f:87:e7:6d:51:ee:37:70:be:23:32:95:
                    5a:81:55:bb:e4:04:e9:43:8a:40:17:6a:41:bd:0d:
                    e8:e6:7e:a9:ee:72:6b:e9:ef:4b:a4:48:78:9a:fc:
                    ca:60:96:9b:14:17:c4:31:d7:a5:5a:c1:48:87:15:
                    eb:48:99:3a:c0:48:87:41:a1:c5:47:fc:13:b7:5a:
                    00:56:74:22:12:55:b2:1a:e9:48:25:4c:ac:41:c3:
                    07:74:fe:00:7e:ec:74:d0:c6:ec:b7:63:f0:82:57:
                    5e:4a:f2:ce:20:71:40:67:6d:c9:d1:42:e8:e6:41:
                    c8:a2:75:cd:80:92:89:f4:ea:ef:60:97:a8:94:76:
                    77:56:dd:45:3e:1c:e8:6d:a6:60:f0:a3:7f:54:37:
                    d0:f9:63:dd:5f:69:cb:e3:9c:95:73:63:0b:fc:69:
                    03:73:ce:69:8c:23:24:b2:ba:5c:31:d7:0f:8b:64:
                    fc:ad:e3:03:62:31:e8:3e:c4:30:10:df:3e:6f:8d:
                    1c:d7:0f:2b:95:92:eb:a9:34:7f:6d:1c:3b:b0:61:
                    49:8a:33:ee:f6:3b:d4:a0:57:22:82:0b:7f:f3:72:
                    cf:bb:5b:33:ee:81:62:a5:a3:3c:02:6c:14:1e:b2:
                    1a:b5:43:59:2f:0d:cd:15:ee:b2:48:73:8b:30:ef:
                    0e:51
                Exponent: 65537 (0x10001)
        X509v3 extensions:
            X509v3 Basic Constraints: critical
                CA:FALSE
            X509v3 Subject Key Identifier: 
                45:FA:FA:B0:C9:3F:40:4F:BA:56:11:4D:C7:A9:69:94:E4:DD:D5:70
            X509v3 Authority Key Identifier: 
                keyid:F2:4A:EE:8A:7D:E3:AA:79:07:8B:D6:DD:3B:DD:A1:A5:72:32:7E:6A

            X509v3 Key Usage: critical
                Digital Signature, Non Repudiation, Key Encipherment, Data Encipherment, Key Agreement
            X509v3 CRL Distribution Points: 
                URI:http://service-grid-ca.web.cern.ch/service-grid-ca/cgi-bin/getCRL

            X509v3 Issuer Alternative Name: 
                email:service-grid-ca@cern.ch
            X509v3 Certificate Policies: 
                Policy: 1.3.6.1.4.1.96.10.1.2.2

            Netscape Cert Type: 
                SSL Client, SSL Server, S/MIME
            Netscape Base Url: 
                http://service-grid-ca.web.cern.ch/service-grid-ca/
    Signature Algorithm: md5WithRSAEncryption
        5d:a3:d8:c0:cd:57:e7:a1:79:6c:d8:84:ea:3c:d7:ef:d4:13:
        67:71:72:bc:cb:df:46:af:1f:bb:15:56:0c:9c:5d:01:f9:d4:
        a6:65:d1:d5:e1:f3:97:96:7e:f0:32:f7:1c:bc:2c:cd:b2:1c:
        28:4d:21:81:d8:64:0c:5d:06:d2:3f:33:0d:4a:74:23:80:8b:
        88:24:b5:46:ef:16:c5:f3:9f:5e:ce:1e:21:df:ba:9e:6b:25:
        ea:11:5a:f2:98:7c:4c:1f:07:9e:dd:ba:a1:1e:b7:0f:92:d3:
        19:ff:f6:19:2a:b2:6f:5f:b7:c0:28:d0:32:c2:38:f7:2d:52:
        8e:b3:eb:16:5e:8d:39:0a:eb:26:b3:1d:66:6d:07:a3:ed:7e:
        45:98:90:ab:2e:77:b3:3d:b0:cf:c3:db:e0:d2:8e:b6:9b:97:
        48:57:a1:c8:7e:e1:42:9b:b5:44:be:5a:b2:a9:34:74:02:c4:
        a7:a2:42:70:7b:fe:df:f2:45:ce:77:6e:53:54:ca:13:8b:33:
        40:a2:29:b2:88:d9:fd:3d:64:87:c5:28:6b:4d:b4:46:0e:c4:
        1d:d7:69:4e:49:77:e0:ec:75:68:1b:cd:6e:ae:c4:95:38:56:
        15:7d:12:c7:31:a1:a8:80:76:01:4e:23:e5:12:ef:4e:89:7a:
        5b:65:07:35
-----BEGIN CERTIFICATE-----
MIIESjCCAzKgAwIBAgICAkEwDQYJKoZIhvcNAQEEBQAwPTELMAkGA1UEBhMCQ0gx
DTALBgNVBAoTBENFUk4xDTALBgNVBAsTBEdSSUQxEDAOBgNVBAMTB0NFUk4gQ0Ew
HhcNMDQwNzI4MTQzNjE1WhcNMDUwNzI4MTQzNjE1WjBFMQswCQYDVQQGEwJDSDEN
MAsGA1UEChMEQ0VSTjENMAsGA1UECxMER1JJRDEYMBYGA1UEAxMPbHhiMjAyMy5j
ZXJuLmNoMIIBIjANBgkqhkiG9w0BAQEFAAOCAQ8AMIIBCgKCAQEA2S+Ph+dtUe43
cL4jMpVagVW75ATpQ4pAF2pBvQ3o5n6p7nJr6e9LpEh4mvzKYJabFBfEMdelWsFI
hxXrSJk6wEiHQaHFR/wTt1oAVnQiElWyGulIJUysQcMHdP4Afux00Mbst2Pwglde
SvLOIHFAZ23J0ULo5kHIonXNgJKJ9OrvYJeolHZ3Vt1FPhzobaZg8KN/VDfQ+WPd
X2nL45yVc2ML/GkDc85pjCMksrpcMdcPi2T8reMDYjHoPsQwEN8+b40c1w8rlZLr
qTR/bRw7sGFJijPu9jvUoFciggt/83LPu1sz7oFipaM8AmwUHrIatUNZLw3NFe6y
SHOLMO8OUQIDAQABo4IBSjCCAUYwDAYDVR0TAQH/BAIwADAdBgNVHQ4EFgQURfr6
sMk/QE+6VhFNx6lplOTd1XAwHwYDVR0jBBgwFoAU8kruin3jqnkHi9bdO92hpXIy
fmowDgYDVR0PAQH/BAQDAgP4MFIGA1UdHwRLMEkwR6BFoEOGQWh0dHA6Ly9zZXJ2
aWNlLWdyaWQtY2Eud2ViLmNlcm4uY2gvc2VydmljZS1ncmlkLWNhL2NnaS1iaW4v
Z2V0Q1JMMCIGA1UdEgQbMBmBF3NlcnZpY2UtZ3JpZC1jYUBjZXJuLmNoMBcGA1Ud
IAQQMA4wDAYKKwYBBAFgCgECAjARBglghkgBhvhCAQEEBAMCBeAwQgYJYIZIAYb4
QgECBDUWM2h0dHA6Ly9zZXJ2aWNlLWdyaWQtY2Eud2ViLmNlcm4uY2gvc2Vydmlj
ZS1ncmlkLWNhLzANBgkqhkiG9w0BAQQFAAOCAQEAXaPYwM1X56F5bNiE6jzX79QT
Z3FyvMvfRq8fuxVWDJxdAfnUpmXR1eHzl5Z+8DL3HLwszbIcKE0hgdhkDF0G0j8z
DUp0I4CLiCS1Ru8WxfOfXs4eId+6nmsl6hFa8ph8TB8Hnt26oR63D5LTGf/2GSqy
b1+3wCjQMsI49y1SjrPrFl6NOQrrJrMdZm0Ho+1+RZiQqy53sz2wz8Pb4NKOtpuX
SFehyH7hQpu1RL5asqk0dALEp6JCcHv+3/JFznduU1TKE4szQKIpsojZ/T1kh8Uo
a020Rg7EHddpTkl34Ox1aBvNbq7ElThWFX0SxzGhqIB2AU4j5RLvTol6W2UHNQ==
-----END CERTIFICATE-----
