Certificate:
    Data:
        Version: 3 (0x2)
        Serial Number: 376 (0x178)
        Signature Algorithm: sha224WithRSAEncryption
        Issuer: C=UG, L=Tropic, O=Utopia, OU=Relaxation, CN=the trusted CA
        Validity
            Not Before: Dec 15 22:23:55 2011 GMT
            Not After : Aug 23 22:23:55 2025 GMT
        Subject: C=UG, L=Tropic, O=Utopia, OU=Relaxation, CN=trusted client with sha224 hash
        Subject Public Key Info:
            Public Key Algorithm: rsaEncryption
            RSA Public Key: (1024 bit)
                Modulus (1024 bit):
                    00:bf:b6:fc:4f:92:c1:dc:a2:0f:98:a2:d1:d9:a7:
                    8c:b7:6c:51:41:e1:5a:10:f3:64:45:4e:16:5f:64:
                    1f:ab:79:c6:2d:92:09:3f:67:e0:17:35:3a:7b:d7:
                    a8:67:85:20:19:6f:71:a7:a5:48:6e:c8:a2:26:8b:
                    91:f4:cb:23:97:22:b8:15:81:5a:80:ad:60:41:47:
                    54:7e:e2:eb:dc:a5:a5:23:24:3c:70:94:c3:71:ce:
                    83:ae:c9:4b:c4:a4:a3:da:ed:29:7e:e2:db:b5:dd:
                    68:a6:5d:60:b5:c8:07:d6:17:56:b2:2a:2f:e5:b9:
                    08:1c:37:bd:bc:6a:1d:ac:9d
                Exponent: 65537 (0x10001)
        X509v3 extensions:
            Netscape Cert Type: 
                SSL Client, S/MIME
            Netscape Comment: 
                OpenSSL Generated Client Certificate
    Signature Algorithm: sha224WithRSAEncryption
        52:5a:4e:5e:1a:fa:45:52:5b:b6:d3:cb:04:1e:8b:71:4d:ee:
        db:bd:63:39:ea:7f:cc:aa:45:12:7d:81:0f:97:8f:9d:88:de:
        d6:95:9f:e4:91:05:a0:e8:81:7d:46:9b:62:cf:1c:5b:a8:5b:
        16:83:d9:5f:62:c4:ab:18:84:91:29:9d:2f:a1:31:19:2b:58:
        cc:34:6b:69:8d:f1:c7:fe:08:92:e0:c9:30:23:f0:95:98:34:
        30:6f:84:88:58:f9:6d:65:21:9d:e5:20:43:37:1a:59:41:54:
        de:24:3d:e6:f3:d5:af:cb:7b:ce:37:78:90:d6:9e:d3:8f:7b:
        c1:f8
-----BEGIN CERTIFICATE-----
MIICjDCCAfWgAwIBAgICAXgwDQYJKoZIhvcNAQEOBQAwXTELMAkGA1UEBhMCVUcx
DzANBgNVBAcTBlRyb3BpYzEPMA0GA1UEChMGVXRvcGlhMRMwEQYDVQQLEwpSZWxh
eGF0aW9uMRcwFQYDVQQDEw50aGUgdHJ1c3RlZCBDQTAeFw0xMTEyMTUyMjIzNTVa
Fw0yNTA4MjMyMjIzNTVaMG4xCzAJBgNVBAYTAlVHMQ8wDQYDVQQHEwZUcm9waWMx
DzANBgNVBAoTBlV0b3BpYTETMBEGA1UECxMKUmVsYXhhdGlvbjEoMCYGA1UEAxMf
dHJ1c3RlZCBjbGllbnQgd2l0aCBzaGEyMjQgaGFzaDCBnzANBgkqhkiG9w0BAQEF
AAOBjQAwgYkCgYEAv7b8T5LB3KIPmKLR2aeMt2xRQeFaEPNkRU4WX2Qfq3nGLZIJ
P2fgFzU6e9eoZ4UgGW9xp6VIbsiiJouR9MsjlyK4FYFagK1gQUdUfuLr3KWlIyQ8
cJTDcc6DrslLxKSj2u0pfuLbtd1opl1gtcgH1hdWsiov5bkIHDe9vGodrJ0CAwEA
AaNKMEgwEQYJYIZIAYb4QgEBBAQDAgWgMDMGCWCGSAGG+EIBDQQmFiRPcGVuU1NM
IEdlbmVyYXRlZCBDbGllbnQgQ2VydGlmaWNhdGUwDQYJKoZIhvcNAQEOBQADgYEA
UlpOXhr6RVJbttPLBB6LcU3u271jOep/zKpFEn2BD5ePnYje1pWf5JEFoOiBfUab
Ys8cW6hbFoPZX2LEqxiEkSmdL6ExGStYzDRraY3xx/4IkuDJMCPwlZg0MG+EiFj5
bWUhneUgQzcaWUFU3iQ95vPVr8t7zjd4kNae0497wfg=
-----END CERTIFICATE-----
