Certificate:
    Data:
        Version: 3 (0x2)
        Serial Number: 396 (0x18c)
        Signature Algorithm: sha1WithRSAEncryption
        Issuer: C=UG, L=Tropic, O=Utopia, OU=Relaxation, CN=the trusted CA
        Validity
            Not Before: Dec 15 22:24:16 2011 GMT
            Not After : Aug 23 22:24:16 2025 GMT
        Subject: C=UG, L=Tropic, O=Utopia, OU=Relaxation, CN=pchip10.cern.ch/emailAddress=john.doe@foo.bar
        Subject Public Key Info:
            Public Key Algorithm: rsaEncryption
            RSA Public Key: (1024 bit)
                Modulus (1024 bit):
                    00:d8:50:d4:25:c8:9c:96:cb:ad:7a:7c:52:f2:4f:
                    03:d3:71:cb:3f:6f:26:d4:1d:dd:9a:70:be:55:ba:
                    7f:63:4a:d9:8a:26:df:d7:0e:cf:b5:79:c5:86:14:
                    c9:c8:8b:17:94:cc:2b:26:e7:b7:00:ce:00:2f:f8:
                    08:9e:28:87:e7:3b:7b:6a:d9:33:08:97:95:89:bc:
                    e3:ae:dd:9d:9a:2b:e9:d5:9d:61:a0:f1:48:56:d4:
                    f6:aa:24:a6:59:bf:9d:a3:6d:32:82:03:b0:fa:01:
                    31:fa:d3:7c:f2:67:8c:3d:d7:bc:8c:00:39:7e:7a:
                    3c:4d:c6:86:b8:2c:f5:28:bf
                Exponent: 65537 (0x10001)
        X509v3 extensions:
            Netscape Cert Type: 
                SSL Server
            Netscape Comment: 
                OpenSSL Generated Server Certificate
    Signature Algorithm: sha1WithRSAEncryption
        67:3e:cd:30:59:21:26:03:07:3d:80:58:e9:f4:80:25:ca:38:
        c2:07:77:56:6e:ff:f8:d9:74:9e:64:9a:23:e7:68:e4:e1:61:
        28:02:51:f0:d5:06:cc:4c:70:aa:3f:39:c1:e7:ab:ba:ac:69:
        94:30:24:b7:e3:7a:bd:26:13:50:9e:c6:b5:03:29:cd:a4:66:
        cd:0a:4f:09:32:d4:1a:c7:b8:56:ed:36:3d:56:e9:ce:95:b2:
        07:86:30:47:f0:72:23:0f:3a:ba:c9:41:d5:07:83:bf:17:b2:
        08:e0:44:19:e4:53:44:95:6f:84:63:dc:f8:f5:37:a1:04:c6:
        8c:c9
-----BEGIN CERTIFICATE-----
MIICnTCCAgagAwIBAgICAYwwDQYJKoZIhvcNAQEFBQAwXTELMAkGA1UEBhMCVUcx
DzANBgNVBAcTBlRyb3BpYzEPMA0GA1UEChMGVXRvcGlhMRMwEQYDVQQLEwpSZWxh
eGF0aW9uMRcwFQYDVQQDEw50aGUgdHJ1c3RlZCBDQTAeFw0xMTEyMTUyMjI0MTZa
Fw0yNTA4MjMyMjI0MTZaMH8xCzAJBgNVBAYTAlVHMQ8wDQYDVQQHEwZUcm9waWMx
DzANBgNVBAoTBlV0b3BpYTETMBEGA1UECxMKUmVsYXhhdGlvbjEYMBYGA1UEAxMP
cGNoaXAxMC5jZXJuLmNoMR8wHQYJKoZIhvcNAQkBFhBqb2huLmRvZUBmb28uYmFy
MIGfMA0GCSqGSIb3DQEBAQUAA4GNADCBiQKBgQDYUNQlyJyWy616fFLyTwPTccs/
bybUHd2acL5Vun9jStmKJt/XDs+1ecWGFMnIixeUzCsm57cAzgAv+AieKIfnO3tq
2TMIl5WJvOOu3Z2aK+nVnWGg8UhW1PaqJKZZv52jbTKCA7D6ATH603zyZ4w917yM
ADl+ejxNxoa4LPUovwIDAQABo0owSDARBglghkgBhvhCAQEEBAMCBkAwMwYJYIZI
AYb4QgENBCYWJE9wZW5TU0wgR2VuZXJhdGVkIFNlcnZlciBDZXJ0aWZpY2F0ZTAN
BgkqhkiG9w0BAQUFAAOBgQBnPs0wWSEmAwc9gFjp9IAlyjjCB3dWbv/42XSeZJoj
52jk4WEoAlHw1QbMTHCqPznB56u6rGmUMCS343q9JhNQnsa1AynNpGbNCk8JMtQa
x7hW7TY9VunOlbIHhjBH8HIjDzq6yUHVB4O/F7II4EQZ5FNElW+EY9z49TehBMaM
yQ==
-----END CERTIFICATE-----
