Certificate:
    Data:
        Version: 3 (0x2)
        Serial Number: 398 (0x18e)
        Signature Algorithm: sha1WithRSAEncryption
        Issuer: C=UG, L=Tropic, O=Utopia, OU=Relaxation, CN=the trusted CA
        Validity
            Not Before: Dec 15 22:24:16 2011 GMT
            Not After : Aug 23 22:24:16 2025 GMT
        Subject: C=UG, L=Tropic, O=Utopia, OU=Relaxation, CN=trusted altname, CN=xxx.foo.bar
        Subject Public Key Info:
            Public Key Algorithm: rsaEncryption
            RSA Public Key: (1024 bit)
                Modulus (1024 bit):
                    00:9e:c0:96:bf:e6:53:16:ae:28:01:42:d4:7a:04:
                    83:5d:a0:53:63:c8:87:fb:b5:ee:35:74:4b:7b:b0:
                    76:fc:d3:c9:2d:42:93:fc:8e:b3:b0:f7:31:55:bc:
                    6a:ac:dc:33:5e:9f:f3:a4:cd:f4:63:f4:09:b4:d8:
                    1e:a5:74:43:69:0c:b0:3d:a5:e9:44:b2:58:38:39:
                    85:2b:75:a6:2a:53:ab:71:7f:49:42:cc:c1:e0:8b:
                    a0:7a:df:ff:26:79:c9:95:1c:da:6a:d5:5c:46:db:
                    3c:a1:d3:7e:71:71:ff:ee:63:3f:d0:d5:46:4f:7b:
                    5a:3d:f0:18:62:e3:1f:2e:ff
                Exponent: 65537 (0x10001)
        X509v3 extensions:
            Netscape Cert Type: 
                SSL Server
            Netscape Comment: 
                OpenSSL Generated Server Certificate
            X509v3 Subject Alternative Name: 
                DNS:*.hoo.org, DNS:joo.haa.org, IP Address:123.124.220.1, DNS:g*a.e*.com
    Signature Algorithm: sha1WithRSAEncryption
        8e:c7:d7:de:eb:3b:c4:35:ef:f4:9a:12:58:69:1d:5f:6e:1d:
        dc:87:98:69:51:9e:4b:49:85:51:82:9d:11:94:23:9d:fe:08:
        a2:98:93:3c:63:1a:a8:86:d5:c3:d8:45:f7:a8:47:1e:7a:98:
        a7:b5:8d:11:58:15:c8:51:b9:25:5b:6b:d2:ff:07:3b:1e:7c:
        f6:bb:7e:b9:bc:89:6e:b1:76:40:fe:68:4b:38:11:d8:cc:7f:
        98:1a:1b:e9:f0:a3:2f:cb:9b:77:88:86:cb:ce:a9:d6:46:58:
        c1:ca:0f:52:f7:c0:2d:5b:a7:46:a7:4f:9e:b4:1d:d5:0f:6a:
        1e:92
-----BEGIN CERTIFICATE-----
MIICxzCCAjCgAwIBAgICAY4wDQYJKoZIhvcNAQEFBQAwXTELMAkGA1UEBhMCVUcx
DzANBgNVBAcTBlRyb3BpYzEPMA0GA1UEChMGVXRvcGlhMRMwEQYDVQQLEwpSZWxh
eGF0aW9uMRcwFQYDVQQDEw50aGUgdHJ1c3RlZCBDQTAeFw0xMTEyMTUyMjI0MTZa
Fw0yNTA4MjMyMjI0MTZaMHQxCzAJBgNVBAYTAlVHMQ8wDQYDVQQHEwZUcm9waWMx
DzANBgNVBAoTBlV0b3BpYTETMBEGA1UECxMKUmVsYXhhdGlvbjEYMBYGA1UEAxMP
dHJ1c3RlZCBhbHRuYW1lMRQwEgYDVQQDEwt4eHguZm9vLmJhcjCBnzANBgkqhkiG
9w0BAQEFAAOBjQAwgYkCgYEAnsCWv+ZTFq4oAULUegSDXaBTY8iH+7XuNXRLe7B2
/NPJLUKT/I6zsPcxVbxqrNwzXp/zpM30Y/QJtNgepXRDaQywPaXpRLJYODmFK3Wm
KlOrcX9JQszB4Iuget//JnnJlRzaatVcRts8odN+cXH/7mM/0NVGT3taPfAYYuMf
Lv8CAwEAAaN/MH0wEQYJYIZIAYb4QgEBBAQDAgZAMDMGCWCGSAGG+EIBDQQmFiRP
cGVuU1NMIEdlbmVyYXRlZCBTZXJ2ZXIgQ2VydGlmaWNhdGUwMwYDVR0RBCwwKoIJ
Ki5ob28ub3Jnggtqb28uaGFhLm9yZ4cEe3zcAYIKZyphLmUqLmNvbTANBgkqhkiG
9w0BAQUFAAOBgQCOx9fe6zvENe/0mhJYaR1fbh3ch5hpUZ5LSYVRgp0RlCOd/gii
mJM8YxqohtXD2EX3qEceepintY0RWBXIUbklW2vS/wc7Hnz2u365vIlusXZA/mhL
OBHYzH+YGhvp8KMvy5t3iIbLzqnWRljByg9S98AtW6dGp0+etB3VD2oekg==
-----END CERTIFICATE-----
