Certificate:
    Data:
        Version: 3 (0x2)
        Serial Number: 412 (0x19c)
        Signature Algorithm: sha1WithRSAEncryption
        Issuer: C=UG, L=Tropic, O=Utopia, OU=Relaxation, CN=the trusted CA
        Validity
            Not Before: Dec 15 22:24:18 2011 GMT
            Not After : Aug 23 22:24:18 2025 GMT
        Subject: C=UG, L=Tropic, O=Utopia, OU=Relaxation, CN=trusted clientserver revoked
        Subject Public Key Info:
            Public Key Algorithm: rsaEncryption
            RSA Public Key: (1024 bit)
                Modulus (1024 bit):
                    00:bf:a7:0d:48:f5:fc:c6:57:38:a1:cd:40:87:12:
                    4e:63:4e:6a:93:6d:ca:0e:31:b3:44:e5:8e:cd:cb:
                    b2:5e:f1:36:04:c4:5b:0a:4a:d4:16:e4:47:5f:dd:
                    c3:bd:ea:5e:54:8d:3c:d1:7b:37:b6:76:00:c8:fc:
                    41:03:16:e9:30:05:f5:19:1d:7d:b7:cb:9a:9e:e7:
                    be:23:5c:77:97:9d:db:70:1e:c6:4a:53:32:1e:ef:
                    37:9c:bd:8e:dd:b5:a7:a4:e2:f6:1f:a7:38:55:ec:
                    54:4c:0e:19:f7:a5:bb:14:68:3e:20:c6:4b:b2:cc:
                    25:ff:ee:fe:4f:a7:59:32:db
                Exponent: 65537 (0x10001)
        X509v3 extensions:
            Netscape Cert Type: 
                SSL Client, SSL Server, S/MIME
            Netscape Comment: 
                OpenSSL Generated Client Server Certificate
    Signature Algorithm: sha1WithRSAEncryption
        6c:83:06:80:0c:55:82:98:ff:6b:8d:08:cb:db:7f:7e:1b:c7:
        c4:5d:33:b5:db:f7:3e:82:9d:cd:e1:da:9a:ba:59:67:73:3f:
        11:6b:68:b5:e7:02:91:95:b3:b0:f8:27:eb:3e:74:8f:d4:b7:
        d3:58:79:6c:be:12:12:16:19:1c:75:12:e3:1c:23:ca:18:9a:
        24:9a:96:33:ea:8b:25:b9:7e:eb:36:3d:72:39:3c:f1:25:9d:
        64:36:8b:5b:e6:e4:02:d7:62:2e:34:a4:e1:fd:4b:28:d9:fa:
        3f:13:cb:aa:82:db:e0:ad:78:70:b9:45:90:03:c2:a9:ce:ec:
        fa:b6
-----BEGIN CERTIFICATE-----
MIICkDCCAfmgAwIBAgICAZwwDQYJKoZIhvcNAQEFBQAwXTELMAkGA1UEBhMCVUcx
DzANBgNVBAcTBlRyb3BpYzEPMA0GA1UEChMGVXRvcGlhMRMwEQYDVQQLEwpSZWxh
eGF0aW9uMRcwFQYDVQQDEw50aGUgdHJ1c3RlZCBDQTAeFw0xMTEyMTUyMjI0MTha
Fw0yNTA4MjMyMjI0MThaMGsxCzAJBgNVBAYTAlVHMQ8wDQYDVQQHEwZUcm9waWMx
DzANBgNVBAoTBlV0b3BpYTETMBEGA1UECxMKUmVsYXhhdGlvbjElMCMGA1UEAxMc
dHJ1c3RlZCBjbGllbnRzZXJ2ZXIgcmV2b2tlZDCBnzANBgkqhkiG9w0BAQEFAAOB
jQAwgYkCgYEAv6cNSPX8xlc4oc1AhxJOY05qk23KDjGzROWOzcuyXvE2BMRbCkrU
FuRHX93DvepeVI080Xs3tnYAyPxBAxbpMAX1GR19t8uanue+I1x3l53bcB7GSlMy
Hu83nL2O3bWnpOL2H6c4VexUTA4Z96W7FGg+IMZLsswl/+7+T6dZMtsCAwEAAaNR
ME8wEQYJYIZIAYb4QgEBBAQDAgXgMDoGCWCGSAGG+EIBDQQtFitPcGVuU1NMIEdl
bmVyYXRlZCBDbGllbnQgU2VydmVyIENlcnRpZmljYXRlMA0GCSqGSIb3DQEBBQUA
A4GBAGyDBoAMVYKY/2uNCMvbf34bx8RdM7Xb9z6Cnc3h2pq6WWdzPxFraLXnApGV
s7D4J+s+dI/Ut9NYeWy+EhIWGRx1EuMcI8oYmiSaljPqiyW5fus2PXI5PPElnWQ2
i1vm5ALXYi40pOH9SyjZ+j8Ty6qC2+CteHC5RZADwqnO7Pq2
-----END CERTIFICATE-----
