Certificate:
    Data:
        Version: 3 (0x2)
        Serial Number: 381 (0x17d)
        Signature Algorithm: sha1WithRSAEncryption
        Issuer: C=UG, L=Tropic, O=Utopia, OU=Relaxation, CN=the trusted CA
        Validity
            Not Before: Jan  1 00:00:00 2035 GMT
            Not After : Aug 23 22:23:56 2025 GMT
        Subject: C=UG, L=Tropic, O=Utopia, OU=Relaxation, CN=trusted client future
        Subject Public Key Info:
            Public Key Algorithm: rsaEncryption
            RSA Public Key: (1024 bit)
                Modulus (1024 bit):
                    00:b7:c5:d2:d8:3f:89:83:44:88:c1:86:a7:6d:9f:
                    5b:d8:bd:8a:8d:09:12:21:f8:ed:8f:72:3e:5b:6e:
                    ae:6f:5a:da:01:4b:99:c2:37:77:0a:bb:b3:d8:f5:
                    c3:29:0e:0d:33:8e:8a:5b:82:2c:03:6a:52:f8:db:
                    24:ea:89:3e:03:49:6e:cf:2b:df:b2:73:f6:8a:d0:
                    0f:9c:26:b8:16:06:7e:da:03:b0:72:0d:7c:8d:f5:
                    46:7a:75:60:81:7f:65:42:2a:56:3b:0f:ce:15:f6:
                    4f:aa:46:ef:65:9d:5e:87:c2:a4:06:97:96:4d:09:
                    4d:6d:c0:2b:f0:29:6b:b3:7d
                Exponent: 65537 (0x10001)
        X509v3 extensions:
            Netscape Cert Type: 
                SSL Client, S/MIME
            Netscape Comment: 
                OpenSSL Generated Client Certificate
    Signature Algorithm: sha1WithRSAEncryption
        49:6f:ad:c2:d5:39:80:62:21:46:eb:bc:83:5a:6f:aa:db:72:
        38:91:d4:9a:2b:31:bf:dc:7b:40:0f:ec:0d:1f:1e:1d:39:c6:
        d5:f2:cf:05:ce:3c:d2:13:1b:de:c0:68:c5:33:6b:54:57:ab:
        e1:0f:7d:d9:37:cd:d9:c1:8d:41:0a:82:e0:82:f5:2c:75:6c:
        62:d3:99:d6:a0:d6:af:ec:70:c2:42:4d:a0:cb:f2:57:bb:44:
        27:74:49:e8:41:5a:84:52:e6:c4:ec:5d:1b:fe:fd:69:15:99:
        47:d6:e1:b4:06:59:68:32:2e:44:b9:30:2b:df:26:5d:35:bb:
        08:14
-----BEGIN CERTIFICATE-----
MIICgjCCAeugAwIBAgICAX0wDQYJKoZIhvcNAQEFBQAwXTELMAkGA1UEBhMCVUcx
DzANBgNVBAcTBlRyb3BpYzEPMA0GA1UEChMGVXRvcGlhMRMwEQYDVQQLEwpSZWxh
eGF0aW9uMRcwFQYDVQQDEw50aGUgdHJ1c3RlZCBDQTAeFw0zNTAxMDEwMDAwMDBa
Fw0yNTA4MjMyMjIzNTZaMGQxCzAJBgNVBAYTAlVHMQ8wDQYDVQQHEwZUcm9waWMx
DzANBgNVBAoTBlV0b3BpYTETMBEGA1UECxMKUmVsYXhhdGlvbjEeMBwGA1UEAxMV
dHJ1c3RlZCBjbGllbnQgZnV0dXJlMIGfMA0GCSqGSIb3DQEBAQUAA4GNADCBiQKB
gQC3xdLYP4mDRIjBhqdtn1vYvYqNCRIh+O2Pcj5bbq5vWtoBS5nCN3cKu7PY9cMp
Dg0zjopbgiwDalL42yTqiT4DSW7PK9+yc/aK0A+cJrgWBn7aA7ByDXyN9UZ6dWCB
f2VCKlY7D84V9k+qRu9lnV6HwqQGl5ZNCU1twCvwKWuzfQIDAQABo0owSDARBglg
hkgBhvhCAQEEBAMCBaAwMwYJYIZIAYb4QgENBCYWJE9wZW5TU0wgR2VuZXJhdGVk
IENsaWVudCBDZXJ0aWZpY2F0ZTANBgkqhkiG9w0BAQUFAAOBgQBJb63C1TmAYiFG
67yDWm+q23I4kdSaKzG/3HtAD+wNHx4dOcbV8s8FzjzSExvewGjFM2tUV6vhD33Z
N83ZwY1BCoLggvUsdWxi05nWoNav7HDCQk2gy/JXu0QndEnoQVqEUubE7F0b/v1p
FZlH1uG0BlloMi5EuTAr3yZdNbsIFA==
-----END CERTIFICATE-----
