Certificate:
    Data:
        Version: 3 (0x2)
        Serial Number: 389 (0x185)
        Signature Algorithm: sha1WithRSAEncryption
        Issuer: C=UG, L=Tropic, O=Utopia, OU=Relaxation, CN=the trusted CA
        Validity
            Not Before: Dec 15 22:24:00 2011 GMT
            Not After : Aug 23 22:24:00 2025 GMT
        Subject: C=UG, L=Tropic, O=Utopia, OU=Relaxation, CN=trusted bigclient
        Subject Public Key Info:
            Public Key Algorithm: rsaEncryption
            RSA Public Key: (4096 bit)
                Modulus (4096 bit):
                    00:c1:cc:7e:f1:ea:60:82:11:5f:c9:85:c5:bf:34:
                    7d:d8:09:35:c9:1a:6d:19:94:f2:78:b1:d5:75:df:
                    7c:34:68:09:a1:0e:a2:27:cd:9a:11:a5:35:7d:f8:
                    55:64:4b:cb:a0:a4:ac:9b:6f:0d:d8:9d:42:75:89:
                    b8:52:bc:34:82:9f:b6:a2:0e:f3:c7:9b:fe:f5:87:
                    ed:35:32:d9:c4:f2:c3:bf:be:9c:68:80:92:2c:72:
                    e3:d9:2f:47:a6:8c:0e:9f:ce:17:3c:97:d0:dc:89:
                    f4:94:ea:4a:ce:7e:8e:ae:c1:d9:40:fc:51:4a:83:
                    5d:e1:b7:2a:5c:1f:25:68:b6:8c:48:a9:74:7e:3e:
                    07:3a:b9:2c:9c:3e:5d:56:cb:4d:ea:1d:a5:ad:12:
                    f7:74:97:e5:5d:15:4d:56:c6:fd:4c:30:e3:ad:94:
                    aa:e0:93:91:d0:f9:13:15:5d:30:95:3d:93:d5:af:
                    bb:96:f6:92:3d:4e:83:f1:ba:1d:d6:da:0a:c7:62:
                    04:9b:56:b5:ca:7f:37:7f:1c:36:ee:8e:a3:8a:bc:
                    7d:d8:80:b6:55:2f:89:5b:55:43:a3:78:26:4d:69:
                    5e:1c:2c:b3:b7:50:6b:82:1b:ab:99:38:16:54:f6:
                    05:f8:a5:f5:7a:70:f9:a8:38:1b:3d:88:98:57:e0:
                    c4:f1:57:1c:18:72:2a:27:21:ff:ab:c9:b9:4f:d5:
                    6c:99:49:2c:63:24:f8:d9:13:a1:6b:80:90:56:15:
                    56:60:10:74:a1:39:71:ab:cd:66:c3:d3:47:ae:73:
                    1a:16:e0:e6:48:f0:23:41:00:26:f7:be:69:43:8c:
                    c7:ab:53:7d:5c:22:60:73:7a:21:d1:c8:b2:84:59:
                    11:23:e1:92:c1:01:8e:b9:1b:c1:80:f5:7b:67:a3:
                    3e:d9:2b:c5:f5:c9:7e:7d:07:9d:92:e0:87:57:cc:
                    53:70:86:a7:f8:d3:8a:ed:a3:01:87:61:0e:e9:43:
                    10:63:de:1d:d6:11:76:d3:48:5d:74:91:9c:a7:41:
                    a6:2a:a6:af:37:3f:a9:5f:20:d1:82:18:ab:60:f8:
                    f4:f8:d3:f9:11:fc:98:ce:a9:85:34:08:7a:d2:34:
                    c4:52:aa:18:e9:a4:94:ef:f2:b4:16:bc:31:28:9c:
                    49:1f:98:83:a2:18:77:ef:93:38:6a:7b:e0:5b:72:
                    d4:ff:f3:8d:73:6d:7e:dd:52:fa:4e:b6:d4:48:0b:
                    a1:d9:4b:df:e6:36:50:0c:ca:b2:84:ea:2c:00:88:
                    6c:3b:54:d4:1d:40:54:ab:3d:80:af:8c:dc:f5:95:
                    5c:eb:2f:19:70:3c:3b:a7:4a:bd:ea:36:7d:cf:5a:
                    04:1a:d9
                Exponent: 65537 (0x10001)
        X509v3 extensions:
            Netscape Cert Type: 
                SSL Client, S/MIME
            Netscape Comment: 
                OpenSSL Generated Client Certificate
    Signature Algorithm: sha1WithRSAEncryption
        5f:4f:c2:90:32:d5:89:9f:ca:6f:10:18:18:a7:ed:21:7f:90:
        08:c2:e4:65:b4:11:af:f9:cd:bd:95:61:4e:9f:f0:04:a7:89:
        62:0a:d3:30:49:63:f3:3d:d2:b7:cc:48:97:06:ef:08:a1:88:
        5b:f1:4a:ec:1a:ed:17:90:13:0f:c2:0a:22:f9:5a:93:81:3b:
        7f:fa:24:8b:e3:14:35:1d:4d:42:c4:7e:1d:0b:0b:eb:50:85:
        33:68:9d:01:da:f4:bf:c1:34:79:6d:3f:45:dc:d9:80:0f:aa:
        b9:b7:0e:0a:b7:d6:ef:b8:b2:5f:b9:cf:1f:62:da:78:75:87:
        82:32
-----BEGIN CERTIFICATE-----
MIIEAjCCA2ugAwIBAgICAYUwDQYJKoZIhvcNAQEFBQAwXTELMAkGA1UEBhMCVUcx
DzANBgNVBAcTBlRyb3BpYzEPMA0GA1UEChMGVXRvcGlhMRMwEQYDVQQLEwpSZWxh
eGF0aW9uMRcwFQYDVQQDEw50aGUgdHJ1c3RlZCBDQTAeFw0xMTEyMTUyMjI0MDBa
Fw0yNTA4MjMyMjI0MDBaMGAxCzAJBgNVBAYTAlVHMQ8wDQYDVQQHEwZUcm9waWMx
DzANBgNVBAoTBlV0b3BpYTETMBEGA1UECxMKUmVsYXhhdGlvbjEaMBgGA1UEAxMR
dHJ1c3RlZCBiaWdjbGllbnQwggIiMA0GCSqGSIb3DQEBAQUAA4ICDwAwggIKAoIC
AQDBzH7x6mCCEV/JhcW/NH3YCTXJGm0ZlPJ4sdV133w0aAmhDqInzZoRpTV9+FVk
S8ugpKybbw3YnUJ1ibhSvDSCn7aiDvPHm/71h+01MtnE8sO/vpxogJIscuPZL0em
jA6fzhc8l9DcifSU6krOfo6uwdlA/FFKg13htypcHyVotoxIqXR+Pgc6uSycPl1W
y03qHaWtEvd0l+VdFU1Wxv1MMOOtlKrgk5HQ+RMVXTCVPZPVr7uW9pI9ToPxuh3W
2grHYgSbVrXKfzd/HDbujqOKvH3YgLZVL4lbVUOjeCZNaV4cLLO3UGuCG6uZOBZU
9gX4pfV6cPmoOBs9iJhX4MTxVxwYcionIf+ryblP1WyZSSxjJPjZE6FrgJBWFVZg
EHShOXGrzWbD00eucxoW4OZI8CNBACb3vmlDjMerU31cImBzeiHRyLKEWREj4ZLB
AY65G8GA9Xtnoz7ZK8X1yX59B52S4IdXzFNwhqf404rtowGHYQ7pQxBj3h3WEXbT
SF10kZynQaYqpq83P6lfINGCGKtg+PT40/kR/JjOqYU0CHrSNMRSqhjppJTv8rQW
vDEonEkfmIOiGHfvkzhqe+BbctT/841zbX7dUvpOttRIC6HZS9/mNlAMyrKE6iwA
iGw7VNQdQFSrPYCvjNz1lVzrLxlwPDunSr3qNn3PWgQa2QIDAQABo0owSDARBglg
hkgBhvhCAQEEBAMCBaAwMwYJYIZIAYb4QgENBCYWJE9wZW5TU0wgR2VuZXJhdGVk
IENsaWVudCBDZXJ0aWZpY2F0ZTANBgkqhkiG9w0BAQUFAAOBgQBfT8KQMtWJn8pv
EBgYp+0hf5AIwuRltBGv+c29lWFOn/AEp4liCtMwSWPzPdK3zEiXBu8IoYhb8Urs
Gu0XkBMPwgoi+VqTgTt/+iSL4xQ1HU1CxH4dCwvrUIUzaJ0B2vS/wTR5bT9F3NmA
D6q5tw4Kt9bvuLJfuc8fYtp4dYeCMg==
-----END CERTIFICATE-----
