Certificate:
    Data:
        Version: 3 (0x2)
        Serial Number: 378 (0x17a)
        Signature Algorithm: sha384WithRSAEncryption
        Issuer: C=UG, L=Tropic, O=Utopia, OU=Relaxation, CN=the trusted CA
        Validity
            Not Before: Dec 15 22:23:55 2011 GMT
            Not After : Aug 23 22:23:55 2025 GMT
        Subject: C=UG, L=Tropic, O=Utopia, OU=Relaxation, CN=trusted client with sha384 hash
        Subject Public Key Info:
            Public Key Algorithm: rsaEncryption
            RSA Public Key: (1024 bit)
                Modulus (1024 bit):
                    00:b6:52:ca:d6:28:ee:14:1a:16:f6:e7:ad:b8:b6:
                    30:f9:ef:0d:09:87:8a:c5:8b:66:51:1c:7a:9b:2a:
                    53:16:2a:1c:c7:1b:0f:a0:87:d6:2c:ea:b0:ad:12:
                    33:ec:16:a1:48:a0:c6:aa:33:80:db:5d:f0:64:f3:
                    02:6a:a4:89:2d:22:90:fb:b9:37:2b:8e:40:c5:9b:
                    50:29:39:d5:81:a7:5c:af:3e:aa:65:77:f3:7e:08:
                    b2:86:6f:8d:41:db:df:88:85:3f:cb:fb:5e:11:9d:
                    2b:a7:d4:74:93:06:c8:bc:6c:f7:a4:7b:e4:ab:b1:
                    8b:5c:f6:c3:9c:bf:36:e0:77
                Exponent: 65537 (0x10001)
        X509v3 extensions:
            Netscape Cert Type: 
                SSL Client, S/MIME
            Netscape Comment: 
                OpenSSL Generated Client Certificate
    Signature Algorithm: sha384WithRSAEncryption
        60:0d:4b:c1:9c:b4:ae:76:33:bf:e7:0d:ee:d7:68:55:13:9b:
        a9:5b:de:fe:cf:4f:b8:14:c0:b9:0b:52:d6:5a:ec:a4:a6:19:
        31:ae:a8:5f:9d:a0:bb:f9:2e:b3:bf:a7:2f:65:2d:3b:5c:dc:
        84:7a:42:68:5c:66:55:b3:f7:7b:c9:52:f4:98:4e:bc:3d:51:
        cf:9f:fe:59:2e:f7:1f:b0:d2:d6:3c:df:5b:29:e6:bb:b8:89:
        05:33:22:61:32:9d:82:3c:ef:2c:d9:16:d1:34:bf:ee:c1:1a:
        1a:b3:98:f7:79:49:92:aa:f4:d9:94:0b:22:63:7d:3c:e5:5e:
        f4:ce
-----BEGIN CERTIFICATE-----
MIICjDCCAfWgAwIBAgICAXowDQYJKoZIhvcNAQEMBQAwXTELMAkGA1UEBhMCVUcx
DzANBgNVBAcTBlRyb3BpYzEPMA0GA1UEChMGVXRvcGlhMRMwEQYDVQQLEwpSZWxh
eGF0aW9uMRcwFQYDVQQDEw50aGUgdHJ1c3RlZCBDQTAeFw0xMTEyMTUyMjIzNTVa
Fw0yNTA4MjMyMjIzNTVaMG4xCzAJBgNVBAYTAlVHMQ8wDQYDVQQHEwZUcm9waWMx
DzANBgNVBAoTBlV0b3BpYTETMBEGA1UECxMKUmVsYXhhdGlvbjEoMCYGA1UEAxMf
dHJ1c3RlZCBjbGllbnQgd2l0aCBzaGEzODQgaGFzaDCBnzANBgkqhkiG9w0BAQEF
AAOBjQAwgYkCgYEAtlLK1ijuFBoW9uetuLYw+e8NCYeKxYtmURx6mypTFiocxxsP
oIfWLOqwrRIz7BahSKDGqjOA213wZPMCaqSJLSKQ+7k3K45AxZtQKTnVgadcrz6q
ZXfzfgiyhm+NQdvfiIU/y/teEZ0rp9R0kwbIvGz3pHvkq7GLXPbDnL824HcCAwEA
AaNKMEgwEQYJYIZIAYb4QgEBBAQDAgWgMDMGCWCGSAGG+EIBDQQmFiRPcGVuU1NM
IEdlbmVyYXRlZCBDbGllbnQgQ2VydGlmaWNhdGUwDQYJKoZIhvcNAQEMBQADgYEA
YA1LwZy0rnYzv+cN7tdoVRObqVve/s9PuBTAuQtS1lrspKYZMa6oX52gu/kus7+n
L2UtO1zchHpCaFxmVbP3e8lS9JhOvD1Rz5/+WS73H7DS1jzfWynmu7iJBTMiYTKd
gjzvLNkW0TS/7sEaGrOY93lJkqr02ZQLImN9POVe9M4=
-----END CERTIFICATE-----
