Certificate:
    Data:
        Version: 3 (0x2)
        Serial Number: 411 (0x19b)
        Signature Algorithm: sha1WithRSAEncryption
        Issuer: C=UG, L=Tropic, O=Utopia, OU=Relaxation, CN=the trusted CA
        Validity
            Not Before: Dec 15 22:24:18 2011 GMT
            Not After : Aug 23 22:24:18 2025 GMT
        Subject: C=UG, L=Tropic, O=Utopia, OU=Relaxation, CN=trusted server revoked
        Subject Public Key Info:
            Public Key Algorithm: rsaEncryption
            RSA Public Key: (1024 bit)
                Modulus (1024 bit):
                    00:b3:4f:54:62:e7:c8:40:8b:3a:7d:64:5f:7f:3b:
                    52:4d:69:a0:e5:50:0c:89:6a:e9:e5:80:3c:82:71:
                    0d:19:ca:ef:74:de:fb:41:9a:8f:17:89:90:5f:1d:
                    fd:9a:5d:be:d5:87:3e:fb:ce:4c:78:4d:06:7f:a6:
                    b2:3f:35:78:57:92:77:22:a5:bf:43:0b:2a:9e:fd:
                    59:fc:93:1b:99:ab:84:4e:42:fb:8c:d0:dc:ff:cd:
                    d9:c0:1e:1b:b1:df:d9:4a:c1:e2:20:81:26:6d:82:
                    07:20:f6:24:26:a3:91:d9:aa:10:76:42:f2:e5:ea:
                    de:6d:69:1b:7b:34:cf:30:ff
                Exponent: 65537 (0x10001)
        X509v3 extensions:
            Netscape Cert Type: 
                SSL Server
            Netscape Comment: 
                OpenSSL Generated Server Certificate
    Signature Algorithm: sha1WithRSAEncryption
        4a:fa:96:f7:19:b6:6a:24:97:76:ef:12:8a:61:c7:ac:35:ad:
        4b:74:79:f2:76:00:b3:09:77:3f:0c:ca:15:f3:1e:4e:e0:1f:
        b9:ff:68:f4:66:7b:cb:50:8c:9b:5c:fe:bd:05:cb:92:3f:96:
        ab:e6:c4:3e:27:64:00:9d:b8:25:6b:10:d8:77:a0:15:9a:d8:
        8c:ba:cf:ba:cf:4d:5f:f2:e5:11:d9:a2:e6:3e:4b:87:65:d3:
        80:60:71:d5:cd:4d:85:98:dd:77:e2:8f:be:ee:aa:91:dd:26:
        59:10:05:87:4b:5e:2b:ad:e1:d0:f5:02:bf:1e:0f:5e:73:18:
        dc:05
-----BEGIN CERTIFICATE-----
MIICgzCCAeygAwIBAgICAZswDQYJKoZIhvcNAQEFBQAwXTELMAkGA1UEBhMCVUcx
DzANBgNVBAcTBlRyb3BpYzEPMA0GA1UEChMGVXRvcGlhMRMwEQYDVQQLEwpSZWxh
eGF0aW9uMRcwFQYDVQQDEw50aGUgdHJ1c3RlZCBDQTAeFw0xMTEyMTUyMjI0MTha
Fw0yNTA4MjMyMjI0MThaMGUxCzAJBgNVBAYTAlVHMQ8wDQYDVQQHEwZUcm9waWMx
DzANBgNVBAoTBlV0b3BpYTETMBEGA1UECxMKUmVsYXhhdGlvbjEfMB0GA1UEAxMW
dHJ1c3RlZCBzZXJ2ZXIgcmV2b2tlZDCBnzANBgkqhkiG9w0BAQEFAAOBjQAwgYkC
gYEAs09UYufIQIs6fWRffztSTWmg5VAMiWrp5YA8gnENGcrvdN77QZqPF4mQXx39
ml2+1Yc++85MeE0Gf6ayPzV4V5J3IqW/Qwsqnv1Z/JMbmauETkL7jNDc/83ZwB4b
sd/ZSsHiIIEmbYIHIPYkJqOR2aoQdkLy5erebWkbezTPMP8CAwEAAaNKMEgwEQYJ
YIZIAYb4QgEBBAQDAgZAMDMGCWCGSAGG+EIBDQQmFiRPcGVuU1NMIEdlbmVyYXRl
ZCBTZXJ2ZXIgQ2VydGlmaWNhdGUwDQYJKoZIhvcNAQEFBQADgYEASvqW9xm2aiSX
du8SimHHrDWtS3R58nYAswl3PwzKFfMeTuAfuf9o9GZ7y1CMm1z+vQXLkj+Wq+bE
PidkAJ24JWsQ2HegFZrYjLrPus9NX/LlEdmi5j5Lh2XTgGBx1c1NhZjdd+KPvu6q
kd0mWRAFh0teK63h0PUCvx4PXnMY3AU=
-----END CERTIFICATE-----
