Certificate:
    Data:
        Version: 3 (0x2)
        Serial Number: 405 (0x195)
        Signature Algorithm: sha1WithRSAEncryption
        Issuer: C=UG, L=Tropic, O=Utopia, OU=Relaxation, CN=the trusted CA
        Validity
            Not Before: Dec 15 22:24:17 2011 GMT
            Not After : Aug 23 22:24:17 2025 GMT
        Subject: C=UG, L=Tropic, O=Utopia, OU=Relaxation, CN=trusted none
        Subject Public Key Info:
            Public Key Algorithm: rsaEncryption
            RSA Public Key: (1024 bit)
                Modulus (1024 bit):
                    00:b5:11:fa:22:50:96:e4:98:27:11:2a:b6:de:69:
                    a6:fc:85:e2:44:cd:ba:78:cf:7f:70:81:df:e3:8f:
                    61:69:db:cc:72:1a:76:56:4e:32:ec:57:e4:e0:ac:
                    5a:5e:93:c0:96:e7:50:fe:ea:99:4d:46:5c:fa:ad:
                    f4:03:eb:f6:69:23:61:a7:bc:7b:1d:dc:17:99:fd:
                    73:cc:f8:36:b6:50:e4:a8:2c:68:ed:2d:39:58:d4:
                    54:cc:5f:d9:2c:d2:64:a3:87:9b:dd:4c:21:dd:eb:
                    e7:7c:f2:b8:a1:c6:2e:82:ad:b6:f1:3c:01:ea:7f:
                    b1:a6:e4:d0:27:77:9e:73:c3
                Exponent: 65537 (0x10001)
        X509v3 extensions:
            Netscape Comment: 
                OpenSSL Generated Client Certificate without Flags
    Signature Algorithm: sha1WithRSAEncryption
        47:32:41:54:f7:36:3f:15:85:1f:b3:61:48:7c:ff:8b:6a:06:
        ce:19:5e:31:8e:f5:0c:db:43:6b:72:af:3d:fc:c6:77:39:a7:
        0e:5b:91:11:de:89:33:ba:f8:06:14:e9:67:40:92:05:d8:eb:
        9e:d2:a0:49:69:a6:22:11:c8:3f:32:3d:17:15:26:29:b8:92:
        f4:0a:2f:59:64:69:3d:ed:4d:16:d4:33:81:74:ce:0e:b6:0a:
        27:b9:45:95:10:94:2b:47:64:2f:f7:aa:1f:8d:cc:0b:82:14:
        45:47:3c:33:03:59:6d:8b:ab:e2:f1:40:39:b6:65:5b:95:75:
        11:ba
-----BEGIN CERTIFICATE-----
MIICdDCCAd2gAwIBAgICAZUwDQYJKoZIhvcNAQEFBQAwXTELMAkGA1UEBhMCVUcx
DzANBgNVBAcTBlRyb3BpYzEPMA0GA1UEChMGVXRvcGlhMRMwEQYDVQQLEwpSZWxh
eGF0aW9uMRcwFQYDVQQDEw50aGUgdHJ1c3RlZCBDQTAeFw0xMTEyMTUyMjI0MTda
Fw0yNTA4MjMyMjI0MTdaMFsxCzAJBgNVBAYTAlVHMQ8wDQYDVQQHEwZUcm9waWMx
DzANBgNVBAoTBlV0b3BpYTETMBEGA1UECxMKUmVsYXhhdGlvbjEVMBMGA1UEAxMM
dHJ1c3RlZCBub25lMIGfMA0GCSqGSIb3DQEBAQUAA4GNADCBiQKBgQC1EfoiUJbk
mCcRKrbeaab8heJEzbp4z39wgd/jj2Fp28xyGnZWTjLsV+TgrFpek8CW51D+6plN
Rlz6rfQD6/ZpI2GnvHsd3BeZ/XPM+Da2UOSoLGjtLTlY1FTMX9ks0mSjh5vdTCHd
6+d88rihxi6CrbbxPAHqf7Gm5NAnd55zwwIDAQABo0UwQzBBBglghkgBhvhCAQ0E
NBYyT3BlblNTTCBHZW5lcmF0ZWQgQ2xpZW50IENlcnRpZmljYXRlIHdpdGhvdXQg
RmxhZ3MwDQYJKoZIhvcNAQEFBQADgYEARzJBVPc2PxWFH7NhSHz/i2oGzhleMY71
DNtDa3KvPfzGdzmnDluREd6JM7r4BhTpZ0CSBdjrntKgSWmmIhHIPzI9FxUmKbiS
9AovWWRpPe1NFtQzgXTODrYKJ7lFlRCUK0dkL/eqH43MC4IURUc8MwNZbYur4vFA
ObZlW5V1Ebo=
-----END CERTIFICATE-----
