Certificate:
    Data:
        Version: 3 (0x2)
        Serial Number: 383 (0x17f)
        Signature Algorithm: sha1WithRSAEncryption
        Issuer: C=UG, L=Tropic, O=Utopia, OU=Relaxation, CN=the trusted CA
        Validity
            Not Before: Dec 15 22:23:57 2011 GMT
            Not After : Aug 23 22:23:57 2025 GMT
        Subject: C=UG, L=Tropic, O=Utopia, OU=Relaxation, CN=trusted client revoked
        Subject Public Key Info:
            Public Key Algorithm: rsaEncryption
            RSA Public Key: (1024 bit)
                Modulus (1024 bit):
                    00:d5:30:48:97:da:1f:20:6a:fa:9c:bd:76:ac:88:
                    0d:ec:4d:94:b1:33:62:fd:81:08:06:27:7e:74:b0:
                    8c:1d:8f:7c:91:ea:ff:b6:81:69:38:57:7c:47:1e:
                    84:84:fe:73:6e:e4:ab:aa:35:f6:6e:7b:5d:6a:3e:
                    ca:f7:43:63:3d:f4:2b:e9:fc:ad:62:72:ec:8c:48:
                    db:a6:42:b3:98:4d:4a:39:7c:13:96:29:d7:05:3c:
                    c7:d6:04:15:56:79:c4:10:41:07:0e:dd:0a:b9:fa:
                    20:89:3c:c8:5e:d3:c5:78:99:39:26:b5:55:58:09:
                    d6:a5:08:ce:f4:b6:50:fc:55
                Exponent: 65537 (0x10001)
        X509v3 extensions:
            Netscape Cert Type: 
                SSL Client, S/MIME
            Netscape Comment: 
                OpenSSL Generated Client Certificate
    Signature Algorithm: sha1WithRSAEncryption
        bb:49:47:d4:6f:ac:67:9f:03:c1:a8:bb:ee:d8:cc:95:17:c4:
        d3:45:e1:d8:80:a5:92:2f:32:2b:20:a0:fe:bd:ae:6f:30:66:
        aa:90:e3:28:2f:e1:de:65:be:a5:a6:57:d5:d7:8d:65:7e:f1:
        72:19:0f:b3:8f:f5:bd:07:1d:68:25:db:e0:c4:e1:a8:4b:26:
        d0:a5:76:29:4e:fe:48:52:f6:20:4c:18:80:94:08:3f:a2:0d:
        de:55:4e:59:16:9c:1f:12:63:a5:a8:7a:f7:2a:6a:07:ed:be:
        2b:99:df:0e:09:ea:cf:dc:d8:32:99:a9:77:3c:28:7c:32:be:
        a0:07
-----BEGIN CERTIFICATE-----
MIICgzCCAeygAwIBAgICAX8wDQYJKoZIhvcNAQEFBQAwXTELMAkGA1UEBhMCVUcx
DzANBgNVBAcTBlRyb3BpYzEPMA0GA1UEChMGVXRvcGlhMRMwEQYDVQQLEwpSZWxh
eGF0aW9uMRcwFQYDVQQDEw50aGUgdHJ1c3RlZCBDQTAeFw0xMTEyMTUyMjIzNTda
Fw0yNTA4MjMyMjIzNTdaMGUxCzAJBgNVBAYTAlVHMQ8wDQYDVQQHEwZUcm9waWMx
DzANBgNVBAoTBlV0b3BpYTETMBEGA1UECxMKUmVsYXhhdGlvbjEfMB0GA1UEAxMW
dHJ1c3RlZCBjbGllbnQgcmV2b2tlZDCBnzANBgkqhkiG9w0BAQEFAAOBjQAwgYkC
gYEA1TBIl9ofIGr6nL12rIgN7E2UsTNi/YEIBid+dLCMHY98ker/toFpOFd8Rx6E
hP5zbuSrqjX2bntdaj7K90NjPfQr6fytYnLsjEjbpkKzmE1KOXwTlinXBTzH1gQV
VnnEEEEHDt0KufogiTzIXtPFeJk5JrVVWAnWpQjO9LZQ/FUCAwEAAaNKMEgwEQYJ
YIZIAYb4QgEBBAQDAgWgMDMGCWCGSAGG+EIBDQQmFiRPcGVuU1NMIEdlbmVyYXRl
ZCBDbGllbnQgQ2VydGlmaWNhdGUwDQYJKoZIhvcNAQEFBQADgYEAu0lH1G+sZ58D
wai77tjMlRfE00Xh2IClki8yKyCg/r2ubzBmqpDjKC/h3mW+paZX1deNZX7xchkP
s4/1vQcdaCXb4MThqEsm0KV2KU7+SFL2IEwYgJQIP6IN3lVOWRacHxJjpah69ypq
B+2+K5nfDgnqz9zYMpmpdzwofDK+oAc=
-----END CERTIFICATE-----
