Certificate:
    Data:
        Version: 3 (0x2)
        Serial Number: 377 (0x179)
        Signature Algorithm: sha256WithRSAEncryption
        Issuer: C=UG, L=Tropic, O=Utopia, OU=Relaxation, CN=the trusted CA
        Validity
            Not Before: Dec 15 22:23:55 2011 GMT
            Not After : Aug 23 22:23:55 2025 GMT
        Subject: C=UG, L=Tropic, O=Utopia, OU=Relaxation, CN=trusted client with sha256 hash
        Subject Public Key Info:
            Public Key Algorithm: rsaEncryption
            RSA Public Key: (1024 bit)
                Modulus (1024 bit):
                    00:b3:8e:db:34:6f:c2:f5:6e:bf:5b:89:08:29:93:
                    db:97:fb:38:3b:dd:35:00:32:a4:e0:57:41:89:2f:
                    85:c8:2b:19:7a:ae:87:f0:62:96:6b:82:c1:b2:d0:
                    0d:e1:d5:8c:70:7e:4e:24:ee:52:6b:67:a9:63:76:
                    98:9f:17:da:9a:d9:f4:02:e3:25:65:d7:bb:d2:45:
                    67:01:be:a4:bb:de:56:d2:fd:94:ca:f1:24:23:56:
                    61:b8:2a:7d:ea:5c:96:16:45:5a:1c:95:88:44:c4:
                    89:bb:51:e2:d7:a2:36:dd:9e:8f:b3:f7:e0:d2:c1:
                    0d:1e:95:0a:95:71:c3:85:af
                Exponent: 65537 (0x10001)
        X509v3 extensions:
            Netscape Cert Type: 
                SSL Client, S/MIME
            Netscape Comment: 
                OpenSSL Generated Client Certificate
    Signature Algorithm: sha256WithRSAEncryption
        3c:bc:b4:db:77:e8:3b:a4:70:77:2f:94:91:ef:48:95:76:5d:
        92:b6:33:3c:ef:f9:90:89:7d:a4:d7:fd:94:15:59:15:bc:65:
        01:98:c9:d6:24:fb:d9:59:14:70:1f:27:74:d9:3b:ab:2f:1f:
        b4:7a:e9:bd:da:63:36:e1:1e:9d:c0:20:f9:9c:78:96:76:a5:
        58:62:91:d2:25:8c:ed:d4:5e:9c:ab:e6:d4:80:71:61:0b:5a:
        22:20:ca:7f:b9:4e:e8:57:4d:e6:49:cc:d4:fe:d4:96:68:eb:
        05:bd:f4:2c:39:8d:14:5d:ba:79:0a:7c:e4:9d:9d:62:fc:ce:
        59:4a
-----BEGIN CERTIFICATE-----
MIICjDCCAfWgAwIBAgICAXkwDQYJKoZIhvcNAQELBQAwXTELMAkGA1UEBhMCVUcx
DzANBgNVBAcTBlRyb3BpYzEPMA0GA1UEChMGVXRvcGlhMRMwEQYDVQQLEwpSZWxh
eGF0aW9uMRcwFQYDVQQDEw50aGUgdHJ1c3RlZCBDQTAeFw0xMTEyMTUyMjIzNTVa
Fw0yNTA4MjMyMjIzNTVaMG4xCzAJBgNVBAYTAlVHMQ8wDQYDVQQHEwZUcm9waWMx
DzANBgNVBAoTBlV0b3BpYTETMBEGA1UECxMKUmVsYXhhdGlvbjEoMCYGA1UEAxMf
dHJ1c3RlZCBjbGllbnQgd2l0aCBzaGEyNTYgaGFzaDCBnzANBgkqhkiG9w0BAQEF
AAOBjQAwgYkCgYEAs47bNG/C9W6/W4kIKZPbl/s4O901ADKk4FdBiS+FyCsZeq6H
8GKWa4LBstAN4dWMcH5OJO5Sa2epY3aYnxfamtn0AuMlZde70kVnAb6ku95W0v2U
yvEkI1ZhuCp96lyWFkVaHJWIRMSJu1Hi16I23Z6Ps/fg0sENHpUKlXHDha8CAwEA
AaNKMEgwEQYJYIZIAYb4QgEBBAQDAgWgMDMGCWCGSAGG+EIBDQQmFiRPcGVuU1NM
IEdlbmVyYXRlZCBDbGllbnQgQ2VydGlmaWNhdGUwDQYJKoZIhvcNAQELBQADgYEA
PLy023foO6Rwdy+Uke9IlXZdkrYzPO/5kIl9pNf9lBVZFbxlAZjJ1iT72VkUcB8n
dNk7qy8ftHrpvdpjNuEencAg+Zx4lnalWGKR0iWM7dRenKvm1IBxYQtaIiDKf7lO
6FdN5knM1P7UlmjrBb30LDmNFF26eQp85J2dYvzOWUo=
-----END CERTIFICATE-----
