Certificate:
    Data:
        Version: 3 (0x2)
        Serial Number: 385 (0x181)
        Signature Algorithm: sha1WithRSAEncryption
        Issuer: C=UG, L=Tropic, O=Utopia, OU=Relaxation, CN=the trusted CA
        Validity
            Not Before: Dec 15 22:23:57 2011 GMT
            Not After : Aug 23 22:23:57 2025 GMT
        Subject: C=UG, L=Tropic, O=Utopia, OU=Relaxation, CN=trusted client serial/serialNumber=12341
        Subject Public Key Info:
            Public Key Algorithm: rsaEncryption
            RSA Public Key: (1024 bit)
                Modulus (1024 bit):
                    00:d7:be:4e:2f:88:1e:09:7b:94:80:e0:28:86:06:
                    b8:a3:6c:b4:bc:ba:f3:1c:9d:ae:1a:0d:fd:f5:b5:
                    69:39:7f:6e:3c:4e:d4:a0:6d:86:6e:f1:20:3a:cb:
                    b6:14:32:73:6c:e3:a8:a6:15:36:f8:83:63:b0:f9:
                    79:25:77:3e:b8:ee:c5:48:cc:f2:aa:58:04:d8:47:
                    de:c5:de:85:c0:94:3b:bb:2e:ec:14:48:a3:2b:ca:
                    c0:6a:7e:56:43:4f:fc:a1:d8:7a:f6:67:55:21:90:
                    60:90:d4:d3:79:b8:5f:a4:76:0d:4b:87:e7:6e:6c:
                    32:28:7f:5d:1f:c3:08:bc:19
                Exponent: 65537 (0x10001)
        X509v3 extensions:
            Netscape Cert Type: 
                SSL Client, S/MIME
            Netscape Comment: 
                OpenSSL Generated Client Certificate
    Signature Algorithm: sha1WithRSAEncryption
        1c:65:92:3f:1d:f9:9f:59:60:14:89:53:b9:53:cc:b2:7d:1d:
        c0:58:c3:0e:10:17:83:9c:9b:a5:74:ba:d2:67:87:3c:59:4f:
        20:6d:21:9f:c2:23:69:24:dc:43:10:46:25:f6:9a:83:20:d5:
        f1:5a:43:15:97:e0:f6:2f:bb:fb:ea:68:9f:5e:c4:78:30:84:
        58:4a:d1:7e:d2:36:40:ed:73:4c:b0:62:f1:7f:43:51:10:48:
        eb:91:01:a7:21:38:5f:82:65:dc:bb:6e:1d:b5:1f:8e:ca:2d:
        97:46:77:28:96:22:9d:52:c3:af:63:e0:84:b3:1e:75:2a:47:
        e7:c4
-----BEGIN CERTIFICATE-----
MIICkjCCAfugAwIBAgICAYEwDQYJKoZIhvcNAQEFBQAwXTELMAkGA1UEBhMCVUcx
DzANBgNVBAcTBlRyb3BpYzEPMA0GA1UEChMGVXRvcGlhMRMwEQYDVQQLEwpSZWxh
eGF0aW9uMRcwFQYDVQQDEw50aGUgdHJ1c3RlZCBDQTAeFw0xMTEyMTUyMjIzNTda
Fw0yNTA4MjMyMjIzNTdaMHQxCzAJBgNVBAYTAlVHMQ8wDQYDVQQHEwZUcm9waWMx
DzANBgNVBAoTBlV0b3BpYTETMBEGA1UECxMKUmVsYXhhdGlvbjEeMBwGA1UEAxMV
dHJ1c3RlZCBjbGllbnQgc2VyaWFsMQ4wDAYDVQQFEwUxMjM0MTCBnzANBgkqhkiG
9w0BAQEFAAOBjQAwgYkCgYEA175OL4geCXuUgOAohga4o2y0vLrzHJ2uGg399bVp
OX9uPE7UoG2GbvEgOsu2FDJzbOOophU2+INjsPl5JXc+uO7FSMzyqlgE2Efexd6F
wJQ7uy7sFEijK8rAan5WQ0/8odh69mdVIZBgkNTTebhfpHYNS4fnbmwyKH9dH8MI
vBkCAwEAAaNKMEgwEQYJYIZIAYb4QgEBBAQDAgWgMDMGCWCGSAGG+EIBDQQmFiRP
cGVuU1NMIEdlbmVyYXRlZCBDbGllbnQgQ2VydGlmaWNhdGUwDQYJKoZIhvcNAQEF
BQADgYEAHGWSPx35n1lgFIlTuVPMsn0dwFjDDhAXg5ybpXS60meHPFlPIG0hn8Ij
aSTcQxBGJfaagyDV8VpDFZfg9i+7++pon17EeDCEWErRftI2QO1zTLBi8X9DURBI
65EBpyE4X4Jl3LtuHbUfjsotl0Z3KJYinVLDr2PghLMedSpH58Q=
-----END CERTIFICATE-----
