Certificate:
    Data:
        Version: 3 (0x2)
        Serial Number: 413 (0x19d)
        Signature Algorithm: sha1WithRSAEncryption
        Issuer: C=UG, L=Tropic, O=Utopia, OU=Relaxation, CN=the trusted CA
        Validity
            Not Before: Dec 15 22:24:18 2011 GMT
            Not After : Aug 23 22:24:18 2025 GMT
        Subject: C=UG, L=Tropic, O=Utopia, OU=Relaxation, CN=trusted none revoked
        Subject Public Key Info:
            Public Key Algorithm: rsaEncryption
            RSA Public Key: (1024 bit)
                Modulus (1024 bit):
                    00:e5:37:ba:62:b1:63:06:61:1f:6f:1f:11:65:86:
                    1c:c6:51:30:9d:3f:76:dd:7c:63:a8:98:1e:03:de:
                    3b:6a:82:86:dc:8e:b8:10:fd:0c:64:3c:51:a2:2c:
                    5e:c4:cc:78:a3:f9:0e:88:3c:5b:75:37:76:3d:eb:
                    64:40:79:84:fa:77:2b:77:76:f0:06:4c:77:dc:5e:
                    56:4f:a8:49:de:5e:08:2f:e8:c4:52:e5:cc:6b:60:
                    90:11:08:fa:0f:b7:c3:4b:aa:4f:c6:47:4c:2d:30:
                    f4:5d:2f:77:8f:73:0c:bb:b8:5d:f1:b9:99:fa:aa:
                    30:1e:65:10:fd:ab:c0:02:63
                Exponent: 65537 (0x10001)
        X509v3 extensions:
            Netscape Comment: 
                OpenSSL Generated Client Certificate without Flags
    Signature Algorithm: sha1WithRSAEncryption
        ab:35:22:77:5c:1a:b9:06:93:35:2a:4b:cf:ae:1b:0f:4e:c1:
        77:5a:85:97:86:58:43:79:3f:99:5a:a1:b7:aa:95:f0:3e:cb:
        b4:05:5c:47:2d:1a:51:a4:2f:a7:6d:95:41:12:65:2e:86:61:
        2f:19:99:85:24:86:ee:f8:2d:5a:dc:28:b6:f3:0b:15:32:6a:
        e1:99:0c:45:13:fa:10:1e:ab:22:d5:17:63:8e:af:e4:fc:3a:
        7b:09:5d:57:82:bd:46:da:1d:c4:98:b3:e1:29:e8:78:ed:7f:
        d0:88:d8:7c:3b:9e:b8:73:2d:9f:50:43:ee:e4:e0:68:8c:03:
        4e:08
-----BEGIN CERTIFICATE-----
MIICfDCCAeWgAwIBAgICAZ0wDQYJKoZIhvcNAQEFBQAwXTELMAkGA1UEBhMCVUcx
DzANBgNVBAcTBlRyb3BpYzEPMA0GA1UEChMGVXRvcGlhMRMwEQYDVQQLEwpSZWxh
eGF0aW9uMRcwFQYDVQQDEw50aGUgdHJ1c3RlZCBDQTAeFw0xMTEyMTUyMjI0MTha
Fw0yNTA4MjMyMjI0MThaMGMxCzAJBgNVBAYTAlVHMQ8wDQYDVQQHEwZUcm9waWMx
DzANBgNVBAoTBlV0b3BpYTETMBEGA1UECxMKUmVsYXhhdGlvbjEdMBsGA1UEAxMU
dHJ1c3RlZCBub25lIHJldm9rZWQwgZ8wDQYJKoZIhvcNAQEBBQADgY0AMIGJAoGB
AOU3umKxYwZhH28fEWWGHMZRMJ0/dt18Y6iYHgPeO2qChtyOuBD9DGQ8UaIsXsTM
eKP5Dog8W3U3dj3rZEB5hPp3K3d28AZMd9xeVk+oSd5eCC/oxFLlzGtgkBEI+g+3
w0uqT8ZHTC0w9F0vd49zDLu4XfG5mfqqMB5lEP2rwAJjAgMBAAGjRTBDMEEGCWCG
SAGG+EIBDQQ0FjJPcGVuU1NMIEdlbmVyYXRlZCBDbGllbnQgQ2VydGlmaWNhdGUg
d2l0aG91dCBGbGFnczANBgkqhkiG9w0BAQUFAAOBgQCrNSJ3XBq5BpM1KkvPrhsP
TsF3WoWXhlhDeT+ZWqG3qpXwPsu0BVxHLRpRpC+nbZVBEmUuhmEvGZmFJIbu+C1a
3Ci28wsVMmrhmQxFE/oQHqsi1Rdjjq/k/Dp7CV1Xgr1G2h3EmLPhKeh47X/QiNh8
O564cy2fUEPu5OBojANOCA==
-----END CERTIFICATE-----
