Certificate:
    Data:
        Version: 3 (0x2)
        Serial Number: 410 (0x19a)
        Signature Algorithm: sha1WithRSAEncryption
        Issuer: C=UG, L=Tropic, O=Utopia, OU=Relaxation, CN=the trusted CA
        Validity
            Not Before: Dec 15 22:24:18 2011 GMT
            Not After : Aug 23 22:24:18 2025 GMT
        Subject: C=UG, L=Tropic, O=Utopia, OU=Relaxation, CN=trusted flag client revoked
        Subject Public Key Info:
            Public Key Algorithm: rsaEncryption
            RSA Public Key: (1024 bit)
                Modulus (1024 bit):
                    00:a5:4f:96:9d:49:63:c2:ff:c0:e6:aa:58:48:ea:
                    94:4c:df:36:2a:4c:92:dc:e1:12:17:fb:88:cb:5b:
                    ce:61:94:d8:a9:0b:8f:eb:ea:49:dd:36:06:1a:78:
                    fa:59:5c:09:4e:5b:1f:53:c8:15:23:b6:98:ef:e9:
                    e6:88:f9:6e:8e:1a:f0:70:f6:8f:41:8f:42:35:5b:
                    dd:0a:c8:b5:4d:51:bb:6d:40:aa:26:49:23:e7:72:
                    8c:fa:54:04:57:53:db:50:c2:0d:15:9d:50:e7:74:
                    ef:8e:fd:61:5c:c3:8d:ab:5c:94:53:41:e3:75:9d:
                    47:f1:5b:bb:d1:28:b8:28:b9
                Exponent: 65537 (0x10001)
        X509v3 extensions:
            X509v3 Basic Constraints: 
                CA:FALSE
            X509v3 Key Usage: critical
                Digital Signature, Non Repudiation, Key Encipherment
            Netscape Comment: 
                OpenSSL Generated Client Certificate with key usage
    Signature Algorithm: sha1WithRSAEncryption
        93:dc:16:d7:84:09:86:65:9c:82:e1:a4:48:d1:c0:eb:6e:d6:
        51:23:ec:09:76:6d:1f:97:6f:e7:9f:6a:e7:6f:62:f5:87:02:
        7a:c7:42:bb:46:99:62:5f:91:ee:c8:c5:93:0d:5e:2e:d2:cf:
        2a:d0:49:73:11:19:91:7f:70:00:c0:ef:81:55:79:c8:4d:60:
        f4:b9:85:57:9a:e6:53:74:24:f8:68:3f:8c:aa:93:09:e2:15:
        7b:eb:d5:70:d7:1e:95:a3:76:08:14:a0:b9:2d:c9:a3:51:94:
        67:11:6c:02:7f:26:66:72:c6:66:d6:53:d5:80:1f:2d:b4:ac:
        97:60
-----BEGIN CERTIFICATE-----
MIICnzCCAgigAwIBAgICAZowDQYJKoZIhvcNAQEFBQAwXTELMAkGA1UEBhMCVUcx
DzANBgNVBAcTBlRyb3BpYzEPMA0GA1UEChMGVXRvcGlhMRMwEQYDVQQLEwpSZWxh
eGF0aW9uMRcwFQYDVQQDEw50aGUgdHJ1c3RlZCBDQTAeFw0xMTEyMTUyMjI0MTha
Fw0yNTA4MjMyMjI0MThaMGoxCzAJBgNVBAYTAlVHMQ8wDQYDVQQHEwZUcm9waWMx
DzANBgNVBAoTBlV0b3BpYTETMBEGA1UECxMKUmVsYXhhdGlvbjEkMCIGA1UEAxMb
dHJ1c3RlZCBmbGFnIGNsaWVudCByZXZva2VkMIGfMA0GCSqGSIb3DQEBAQUAA4GN
ADCBiQKBgQClT5adSWPC/8DmqlhI6pRM3zYqTJLc4RIX+4jLW85hlNipC4/r6knd
NgYaePpZXAlOWx9TyBUjtpjv6eaI+W6OGvBw9o9Bj0I1W90KyLVNUbttQKomSSPn
coz6VARXU9tQwg0VnVDndO+O/WFcw42rXJRTQeN1nUfxW7vRKLgouQIDAQABo2Ew
XzAJBgNVHRMEAjAAMA4GA1UdDwEB/wQEAwIF4DBCBglghkgBhvhCAQ0ENRYzT3Bl
blNTTCBHZW5lcmF0ZWQgQ2xpZW50IENlcnRpZmljYXRlIHdpdGgga2V5IHVzYWdl
MA0GCSqGSIb3DQEBBQUAA4GBAJPcFteECYZlnILhpEjRwOtu1lEj7Al2bR+Xb+ef
audvYvWHAnrHQrtGmWJfke7IxZMNXi7SzyrQSXMRGZF/cADA74FVechNYPS5hVea
5lN0JPhoP4yqkwniFXvr1XDXHpWjdggUoLktyaNRlGcRbAJ/JmZyxmbWU9WAHy20
rJdg
-----END CERTIFICATE-----
