Certificate:
    Data:
        Version: 3 (0x2)
        Serial Number: 409 (0x199)
        Signature Algorithm: sha1WithRSAEncryption
        Issuer: C=UG, L=Tropic, O=Utopia, OU=Relaxation, CN=the trusted CA
        Validity
            Not Before: Dec 15 22:24:17 2011 GMT
            Not After : Dec 14 22:24:17 2011 GMT
        Subject: C=UG, L=Tropic, O=Utopia, OU=Relaxation, CN=trusted none expired
        Subject Public Key Info:
            Public Key Algorithm: rsaEncryption
            RSA Public Key: (1024 bit)
                Modulus (1024 bit):
                    00:e3:ca:f7:22:89:45:cc:81:d2:57:10:3f:bb:81:
                    57:e9:2d:3f:6b:eb:4b:8d:83:f7:c4:7b:73:2a:bb:
                    56:32:66:98:f6:b1:14:ae:e2:d8:2a:47:75:76:e9:
                    f3:b6:75:50:8f:f9:0f:b9:4f:c2:5c:28:66:cd:89:
                    8f:56:75:fd:16:b5:62:05:49:b2:25:9b:3d:d0:91:
                    7e:45:bf:7e:87:af:15:91:35:d4:2d:da:fb:7d:0c:
                    51:e0:ae:a4:b0:cb:cb:8b:de:9d:fa:0a:3f:5e:9c:
                    b0:42:92:14:1c:27:f7:fa:f8:b6:f3:29:ca:ef:9b:
                    1e:00:15:f2:14:e2:36:55:71
                Exponent: 65537 (0x10001)
        X509v3 extensions:
            Netscape Comment: 
                OpenSSL Generated Client Certificate without Flags
    Signature Algorithm: sha1WithRSAEncryption
        a2:40:22:be:18:78:00:9d:d5:10:0c:61:0f:19:df:44:5b:af:
        8e:b6:7f:4a:7f:3c:b2:10:a8:2e:8d:c1:c6:15:f8:5b:33:c3:
        e2:3e:8a:77:19:a0:10:cc:f3:54:67:01:d8:4a:91:44:e6:e3:
        7d:a0:9b:3b:6b:7a:e8:7e:89:7d:3d:7d:67:63:8d:c9:a6:9f:
        61:94:21:f0:b6:35:18:aa:b5:63:2b:50:c2:a4:5d:e7:a4:3b:
        ec:aa:6a:5b:50:a3:bd:d5:6f:31:ec:8d:21:d0:28:0d:f3:98:
        c9:4c:a1:d1:f6:cd:19:f7:45:7b:ff:53:1f:da:c4:4a:85:b8:
        77:b1
-----BEGIN CERTIFICATE-----
MIICfDCCAeWgAwIBAgICAZkwDQYJKoZIhvcNAQEFBQAwXTELMAkGA1UEBhMCVUcx
DzANBgNVBAcTBlRyb3BpYzEPMA0GA1UEChMGVXRvcGlhMRMwEQYDVQQLEwpSZWxh
eGF0aW9uMRcwFQYDVQQDEw50aGUgdHJ1c3RlZCBDQTAeFw0xMTEyMTUyMjI0MTda
Fw0xMTEyMTQyMjI0MTdaMGMxCzAJBgNVBAYTAlVHMQ8wDQYDVQQHEwZUcm9waWMx
DzANBgNVBAoTBlV0b3BpYTETMBEGA1UECxMKUmVsYXhhdGlvbjEdMBsGA1UEAxMU
dHJ1c3RlZCBub25lIGV4cGlyZWQwgZ8wDQYJKoZIhvcNAQEBBQADgY0AMIGJAoGB
AOPK9yKJRcyB0lcQP7uBV+ktP2vrS42D98R7cyq7VjJmmPaxFK7i2CpHdXbp87Z1
UI/5D7lPwlwoZs2Jj1Z1/Ra1YgVJsiWbPdCRfkW/foevFZE11C3a+30MUeCupLDL
y4venfoKP16csEKSFBwn9/r4tvMpyu+bHgAV8hTiNlVxAgMBAAGjRTBDMEEGCWCG
SAGG+EIBDQQ0FjJPcGVuU1NMIEdlbmVyYXRlZCBDbGllbnQgQ2VydGlmaWNhdGUg
d2l0aG91dCBGbGFnczANBgkqhkiG9w0BAQUFAAOBgQCiQCK+GHgAndUQDGEPGd9E
W6+Otn9KfzyyEKgujcHGFfhbM8PiPop3GaAQzPNUZwHYSpFE5uN9oJs7a3rofol9
PX1nY43Jpp9hlCHwtjUYqrVjK1DCpF3npDvsqmpbUKO91W8x7I0h0CgN85jJTKHR
9s0Z90V7/1Mf2sRKhbh3sQ==
-----END CERTIFICATE-----
