Certificate:
    Data:
        Version: 3 (0x2)
        Serial Number: 379 (0x17b)
        Signature Algorithm: sha512WithRSAEncryption
        Issuer: C=UG, L=Tropic, O=Utopia, OU=Relaxation, CN=the trusted CA
        Validity
            Not Before: Dec 15 22:23:56 2011 GMT
            Not After : Aug 23 22:23:56 2025 GMT
        Subject: C=UG, L=Tropic, O=Utopia, OU=Relaxation, CN=trusted client with sha512 hash
        Subject Public Key Info:
            Public Key Algorithm: rsaEncryption
            RSA Public Key: (1024 bit)
                Modulus (1024 bit):
                    00:c6:b8:e2:9f:e9:3f:6e:8d:1c:33:3d:19:60:59:
                    cb:84:d9:7f:df:44:69:d4:67:40:76:e8:db:bf:66:
                    a0:56:d8:cc:95:3f:ec:8e:63:af:c0:8e:29:73:2c:
                    76:5e:01:3e:06:da:8a:68:96:93:b5:a0:a7:8c:54:
                    88:eb:0a:d8:cd:cc:1d:56:78:6d:b3:2e:b1:6c:b9:
                    be:6d:87:1b:35:b9:a4:ca:c3:af:94:68:3e:02:47:
                    ce:27:6e:3c:19:4d:3f:46:1d:a4:6e:6b:97:6b:0b:
                    c2:7b:dc:de:67:a0:c2:d4:17:fa:a8:52:08:d9:95:
                    de:d4:e2:21:4d:3b:67:03:75
                Exponent: 65537 (0x10001)
        X509v3 extensions:
            Netscape Cert Type: 
                SSL Client, S/MIME
            Netscape Comment: 
                OpenSSL Generated Client Certificate
    Signature Algorithm: sha512WithRSAEncryption
        a9:4f:cb:d6:53:42:4a:c4:e9:ac:d4:45:b4:18:f4:69:e7:fb:
        56:e9:3a:c4:7e:14:08:ac:73:f8:e4:a6:d5:71:25:26:57:fe:
        c6:3a:92:a4:8e:7d:e5:cb:ab:6d:0d:01:17:58:ed:52:1f:62:
        c6:4f:6f:59:b1:80:b6:c4:ce:09:2b:d9:01:cf:1a:57:eb:8f:
        ec:34:f9:e8:f0:19:06:44:bf:e8:9d:d5:1e:99:c2:20:02:f7:
        02:f8:05:c5:71:cd:25:e3:8b:cb:fb:3f:e3:5c:a3:3d:58:e6:
        7e:a1:d9:cf:66:8d:95:89:ee:dc:03:45:6f:06:da:d3:3b:6c:
        e9:6d
-----BEGIN CERTIFICATE-----
MIICjDCCAfWgAwIBAgICAXswDQYJKoZIhvcNAQENBQAwXTELMAkGA1UEBhMCVUcx
DzANBgNVBAcTBlRyb3BpYzEPMA0GA1UEChMGVXRvcGlhMRMwEQYDVQQLEwpSZWxh
eGF0aW9uMRcwFQYDVQQDEw50aGUgdHJ1c3RlZCBDQTAeFw0xMTEyMTUyMjIzNTZa
Fw0yNTA4MjMyMjIzNTZaMG4xCzAJBgNVBAYTAlVHMQ8wDQYDVQQHEwZUcm9waWMx
DzANBgNVBAoTBlV0b3BpYTETMBEGA1UECxMKUmVsYXhhdGlvbjEoMCYGA1UEAxMf
dHJ1c3RlZCBjbGllbnQgd2l0aCBzaGE1MTIgaGFzaDCBnzANBgkqhkiG9w0BAQEF
AAOBjQAwgYkCgYEAxrjin+k/bo0cMz0ZYFnLhNl/30Rp1GdAdujbv2agVtjMlT/s
jmOvwI4pcyx2XgE+BtqKaJaTtaCnjFSI6wrYzcwdVnhtsy6xbLm+bYcbNbmkysOv
lGg+AkfOJ248GU0/Rh2kbmuXawvCe9zeZ6DC1Bf6qFII2ZXe1OIhTTtnA3UCAwEA
AaNKMEgwEQYJYIZIAYb4QgEBBAQDAgWgMDMGCWCGSAGG+EIBDQQmFiRPcGVuU1NM
IEdlbmVyYXRlZCBDbGllbnQgQ2VydGlmaWNhdGUwDQYJKoZIhvcNAQENBQADgYEA
qU/L1lNCSsTprNRFtBj0aef7Vuk6xH4UCKxz+OSm1XElJlf+xjqSpI595curbQ0B
F1jtUh9ixk9vWbGAtsTOCSvZAc8aV+uP7DT56PAZBkS/6J3VHpnCIAL3AvgFxXHN
JeOLy/s/41yjPVjmfqHZz2aNlYnu3ANFbwba0zts6W0=
-----END CERTIFICATE-----
