Certificate:
    Data:
        Version: 3 (0x2)
        Serial Number: 414 (0x19e)
        Signature Algorithm: sha1WithRSAEncryption
        Issuer: C=UG, L=Tropic, O=Utopia, OU=Relaxation, CN=the trusted CA
        Validity
            Not Before: Dec 15 22:24:18 2011 GMT
            Not After : Aug 23 22:24:18 2025 GMT
        Subject: C=UG, L=Tropic, O=Utopia, OU=Relaxation, CN=hahkala
        Subject Public Key Info:
            Public Key Algorithm: rsaEncryption
            RSA Public Key: (1024 bit)
                Modulus (1024 bit):
                    00:d5:39:9f:ca:26:96:90:37:bf:2b:94:1e:d0:be:
                    1e:c5:bd:9f:1f:57:b6:be:a0:d1:cc:e1:d1:c5:db:
                    f2:90:ca:84:79:df:1b:f6:a6:00:28:b0:dd:75:b6:
                    3f:99:6d:fa:f2:bd:84:d3:fa:88:82:61:4d:6a:04:
                    b8:e2:da:a5:d2:db:73:19:e3:a2:3e:d1:ea:23:d4:
                    bd:b9:e0:49:52:a8:82:1e:05:d7:4a:c1:3e:e9:29:
                    e3:fb:02:b1:10:3b:61:b2:4f:36:e9:7b:b0:32:f6:
                    0b:c7:ae:53:09:ab:75:cf:a0:c8:d9:12:89:54:66:
                    de:e9:8e:eb:22:19:8b:c2:eb
                Exponent: 65537 (0x10001)
        X509v3 extensions:
            Netscape Cert Type: 
                SSL Client, S/MIME
            Netscape Comment: 
                OpenSSL Generated Client Certificate
    Signature Algorithm: sha1WithRSAEncryption
        17:b2:2e:ed:0b:ba:f9:a4:41:26:51:d2:7b:78:9c:85:63:ee:
        5f:13:02:d9:65:7c:d8:d4:6e:25:44:79:d5:41:29:00:49:c9:
        1d:f0:aa:81:9f:e4:7f:2e:56:34:01:2e:5c:b6:7c:43:36:ef:
        2d:19:22:61:e9:62:98:ef:de:0e:b0:fb:db:ec:2f:a5:ff:c8:
        12:bf:82:31:ef:24:40:a1:94:26:a7:21:fd:4c:f7:b5:c6:4a:
        f4:75:e1:69:e1:2f:f0:ed:ef:f0:6d:78:65:18:82:02:65:9a:
        b4:0e:9a:ef:3d:ff:4c:92:34:6b:70:cd:68:11:97:1e:d8:13:
        a4:b1
-----BEGIN CERTIFICATE-----
MIICdDCCAd2gAwIBAgICAZ4wDQYJKoZIhvcNAQEFBQAwXTELMAkGA1UEBhMCVUcx
DzANBgNVBAcTBlRyb3BpYzEPMA0GA1UEChMGVXRvcGlhMRMwEQYDVQQLEwpSZWxh
eGF0aW9uMRcwFQYDVQQDEw50aGUgdHJ1c3RlZCBDQTAeFw0xMTEyMTUyMjI0MTha
Fw0yNTA4MjMyMjI0MThaMFYxCzAJBgNVBAYTAlVHMQ8wDQYDVQQHEwZUcm9waWMx
DzANBgNVBAoTBlV0b3BpYTETMBEGA1UECxMKUmVsYXhhdGlvbjEQMA4GA1UEAxMH
aGFoa2FsYTCBnzANBgkqhkiG9w0BAQEFAAOBjQAwgYkCgYEA1TmfyiaWkDe/K5Qe
0L4exb2fH1e2vqDRzOHRxdvykMqEed8b9qYAKLDddbY/mW368r2E0/qIgmFNagS4
4tql0ttzGeOiPtHqI9S9ueBJUqiCHgXXSsE+6Snj+wKxEDthsk826XuwMvYLx65T
Cat1z6DI2RKJVGbe6Y7rIhmLwusCAwEAAaNKMEgwEQYJYIZIAYb4QgEBBAQDAgWg
MDMGCWCGSAGG+EIBDQQmFiRPcGVuU1NMIEdlbmVyYXRlZCBDbGllbnQgQ2VydGlm
aWNhdGUwDQYJKoZIhvcNAQEFBQADgYEAF7Iu7Qu6+aRBJlHSe3ichWPuXxMC2WV8
2NRuJUR51UEpAEnJHfCqgZ/kfy5WNAEuXLZ8QzbvLRkiYelimO/eDrD72+wvpf/I
Er+CMe8kQKGUJqch/Uz3tcZK9HXhaeEv8O3v8G14ZRiCAmWatA6a7z3/TJI0a3DN
aBGXHtgTpLE=
-----END CERTIFICATE-----
