Certificate:
    Data:
        Version: 3 (0x2)
        Serial Number: 375 (0x177)
        Signature Algorithm: md5WithRSAEncryption
        Issuer: C=UG, L=Tropic, O=Utopia, OU=Relaxation, CN=the trusted CA
        Validity
            Not Before: Dec 15 22:23:54 2011 GMT
            Not After : Aug 23 22:23:54 2025 GMT
        Subject: C=UG, L=Tropic, O=Utopia, OU=Relaxation, CN=trusted client with md5 hash
        Subject Public Key Info:
            Public Key Algorithm: rsaEncryption
            RSA Public Key: (1024 bit)
                Modulus (1024 bit):
                    00:b1:1d:fb:6e:b0:e5:7b:6f:1f:90:23:43:af:3a:
                    ba:d3:e0:cb:37:2f:12:0c:32:14:84:50:c4:8a:52:
                    ec:72:15:29:e3:fb:1e:b6:20:5a:a6:40:47:da:d2:
                    8f:d6:86:b3:bf:90:30:29:16:f1:64:d7:0f:71:13:
                    2c:64:54:5f:42:4d:c9:e2:94:a0:c1:ba:e5:0f:bd:
                    c1:c0:60:d4:a7:d3:2e:c3:4e:ae:d8:6f:a3:7b:01:
                    ee:d8:29:81:76:7a:a1:6a:6e:72:cf:a8:be:96:0f:
                    01:d9:2c:b5:75:2b:9f:11:ae:68:02:1c:96:7e:26:
                    e4:f0:9b:f3:68:54:6e:9d:b5
                Exponent: 65537 (0x10001)
        X509v3 extensions:
            Netscape Cert Type: 
                SSL Client, S/MIME
            Netscape Comment: 
                OpenSSL Generated Client Certificate
    Signature Algorithm: md5WithRSAEncryption
        d2:ac:2c:14:ff:8a:2e:dc:ee:ce:11:5e:4b:8f:9d:a7:0f:e7:
        fc:7a:70:b1:09:81:28:85:b6:43:05:ad:cf:3a:da:3d:bb:06:
        56:45:21:e9:3a:e8:4b:ca:42:6c:dc:63:2e:46:74:ab:8c:1e:
        cb:27:3e:1c:ca:2d:72:4a:60:d0:03:c7:1e:67:ca:a1:96:43:
        f3:b7:da:88:6d:96:87:70:ee:52:ba:79:f0:43:9a:9b:79:54:
        c9:ef:47:62:4a:b9:08:db:72:eb:fc:5f:56:73:03:1e:55:9c:
        6d:db:68:48:a5:0f:bb:c8:b4:47:9f:73:0d:d6:60:ff:c0:ab:
        96:43
-----BEGIN CERTIFICATE-----
MIICiTCCAfKgAwIBAgICAXcwDQYJKoZIhvcNAQEEBQAwXTELMAkGA1UEBhMCVUcx
DzANBgNVBAcTBlRyb3BpYzEPMA0GA1UEChMGVXRvcGlhMRMwEQYDVQQLEwpSZWxh
eGF0aW9uMRcwFQYDVQQDEw50aGUgdHJ1c3RlZCBDQTAeFw0xMTEyMTUyMjIzNTRa
Fw0yNTA4MjMyMjIzNTRaMGsxCzAJBgNVBAYTAlVHMQ8wDQYDVQQHEwZUcm9waWMx
DzANBgNVBAoTBlV0b3BpYTETMBEGA1UECxMKUmVsYXhhdGlvbjElMCMGA1UEAxMc
dHJ1c3RlZCBjbGllbnQgd2l0aCBtZDUgaGFzaDCBnzANBgkqhkiG9w0BAQEFAAOB
jQAwgYkCgYEAsR37brDle28fkCNDrzq60+DLNy8SDDIUhFDEilLschUp4/setiBa
pkBH2tKP1oazv5AwKRbxZNcPcRMsZFRfQk3J4pSgwbrlD73BwGDUp9Muw06u2G+j
ewHu2CmBdnqham5yz6i+lg8B2Sy1dSufEa5oAhyWfibk8JvzaFRunbUCAwEAAaNK
MEgwEQYJYIZIAYb4QgEBBAQDAgWgMDMGCWCGSAGG+EIBDQQmFiRPcGVuU1NMIEdl
bmVyYXRlZCBDbGllbnQgQ2VydGlmaWNhdGUwDQYJKoZIhvcNAQEEBQADgYEA0qws
FP+KLtzuzhFeS4+dpw/n/HpwsQmBKIW2QwWtzzraPbsGVkUh6TroS8pCbNxjLkZ0
q4weyyc+HMotckpg0APHHmfKoZZD87faiG2Wh3DuUrp58EOam3lUye9HYkq5CNty
6/xfVnMDHlWcbdtoSKUPu8i0R59zDdZg/8CrlkM=
-----END CERTIFICATE-----
