Certificate:
    Data:
        Version: 3 (0x2)
        Serial Number: 397 (0x18d)
        Signature Algorithm: sha1WithRSAEncryption
        Issuer: C=UG, L=Tropic, O=Utopia, OU=Relaxation, CN=the trusted CA
        Validity
            Not Before: Dec 15 22:24:16 2011 GMT
            Not After : Aug 23 22:24:16 2025 GMT
        Subject: C=UG, L=Tropic, O=Utopia, OU=Relaxation, CN=trusted/xxx.foo.bar
        Subject Public Key Info:
            Public Key Algorithm: rsaEncryption
            RSA Public Key: (1024 bit)
                Modulus (1024 bit):
                    00:bc:35:69:07:a0:39:c1:cd:d8:32:36:51:b4:35:
                    15:3c:df:60:31:26:61:b0:b8:d3:1a:fc:b6:e9:22:
                    44:27:1d:05:b8:16:e8:8c:37:a4:f0:6f:26:a9:0a:
                    18:76:aa:33:13:da:0d:9a:1c:47:60:83:32:50:c1:
                    95:e3:ed:03:9e:46:b7:e4:81:17:d2:d8:6a:5f:d6:
                    e5:17:fc:b8:72:60:49:4d:c0:5d:0b:cd:cf:1b:4c:
                    9b:a1:4b:e7:a9:51:e5:0f:10:8b:02:81:43:2e:5b:
                    d3:9d:63:63:f8:d5:93:83:60:51:8f:7c:41:09:0f:
                    a2:8d:1a:ad:00:fe:7a:35:d1
                Exponent: 65537 (0x10001)
        X509v3 extensions:
            Netscape Cert Type: 
                SSL Server
            Netscape Comment: 
                OpenSSL Generated Server Certificate
            X509v3 Subject Alternative Name: 
                DNS:*.hoo.org, DNS:joo.haa.org, IP Address:123.124.220.1, DNS:g*a.e*.com
    Signature Algorithm: sha1WithRSAEncryption
        a5:da:ce:e4:78:7e:7c:c8:c4:97:08:83:32:50:d3:a1:bf:86:
        89:77:23:d6:94:6f:a9:23:c9:78:1b:47:8f:b2:1a:60:f8:6a:
        05:b5:e4:27:84:48:2b:b2:f6:6f:6c:34:a6:2e:6b:b0:4d:04:
        1c:b3:8b:52:ce:8c:58:7e:99:f3:99:a5:9f:53:ac:18:e0:e1:
        bf:96:ae:c5:6b:5f:77:cf:ce:78:44:1c:70:7a:07:52:e6:78:
        1c:42:f6:61:58:2c:c5:2a:90:70:22:37:3b:7d:98:25:2d:f2:
        b4:b7:ca:c5:32:7b:39:56:ec:4f:71:22:8d:8c:6e:9e:36:4f:
        b1:d6
-----BEGIN CERTIFICATE-----
MIICtTCCAh6gAwIBAgICAY0wDQYJKoZIhvcNAQEFBQAwXTELMAkGA1UEBhMCVUcx
DzANBgNVBAcTBlRyb3BpYzEPMA0GA1UEChMGVXRvcGlhMRMwEQYDVQQLEwpSZWxh
eGF0aW9uMRcwFQYDVQQDEw50aGUgdHJ1c3RlZCBDQTAeFw0xMTEyMTUyMjI0MTZa
Fw0yNTA4MjMyMjI0MTZaMGIxCzAJBgNVBAYTAlVHMQ8wDQYDVQQHEwZUcm9waWMx
DzANBgNVBAoTBlV0b3BpYTETMBEGA1UECxMKUmVsYXhhdGlvbjEcMBoGA1UEAxMT
dHJ1c3RlZC94eHguZm9vLmJhcjCBnzANBgkqhkiG9w0BAQEFAAOBjQAwgYkCgYEA
vDVpB6A5wc3YMjZRtDUVPN9gMSZhsLjTGvy26SJEJx0FuBbojDek8G8mqQoYdqoz
E9oNmhxHYIMyUMGV4+0Dnka35IEX0thqX9blF/y4cmBJTcBdC83PG0yboUvnqVHl
DxCLAoFDLlvTnWNj+NWTg2BRj3xBCQ+ijRqtAP56NdECAwEAAaN/MH0wEQYJYIZI
AYb4QgEBBAQDAgZAMDMGCWCGSAGG+EIBDQQmFiRPcGVuU1NMIEdlbmVyYXRlZCBT
ZXJ2ZXIgQ2VydGlmaWNhdGUwMwYDVR0RBCwwKoIJKi5ob28ub3Jnggtqb28uaGFh
Lm9yZ4cEe3zcAYIKZyphLmUqLmNvbTANBgkqhkiG9w0BAQUFAAOBgQCl2s7keH58
yMSXCIMyUNOhv4aJdyPWlG+pI8l4G0ePshpg+GoFteQnhEgrsvZvbDSmLmuwTQQc
s4tSzoxYfpnzmaWfU6wY4OG/lq7Fa193z854RBxwegdS5ngcQvZhWCzFKpBwIjc7
fZglLfK0t8rFMns5VuxPcSKNjG6eNk+x1g==
-----END CERTIFICATE-----
