Certificate:
    Data:
        Version: 3 (0x2)
        Serial Number: 383 (0x17f)
        Signature Algorithm: sha1WithRSAEncryption
        Issuer: C=UG, L=Tropic, O=Utopia, OU=Relaxation, CN=the big CA
        Validity
            Not Before: Dec 15 22:24:33 2011 GMT
            Not After : Aug 23 22:24:33 2025 GMT
        Subject: C=UG, L=Tropic, O=Utopia, OU=Relaxation, CN=big client revoked
        Subject Public Key Info:
            Public Key Algorithm: rsaEncryption
            RSA Public Key: (1024 bit)
                Modulus (1024 bit):
                    00:c0:f4:31:de:00:c9:7d:00:83:1e:4d:f3:d2:e0:
                    70:19:e5:9a:8d:24:6e:e0:f9:e1:93:0e:f3:76:76:
                    a3:83:c9:4f:6d:9a:5d:5e:9b:d0:d1:ec:08:30:5b:
                    99:77:25:b3:12:76:28:00:46:5a:bd:36:b1:ea:b1:
                    09:ae:9e:35:ad:96:92:b0:b1:8c:58:67:69:15:ad:
                    63:35:70:77:f1:e4:4d:4a:49:10:14:7f:66:e9:f2:
                    c2:2f:fb:e5:a5:8f:64:80:f8:cb:fc:1d:78:79:e7:
                    ea:39:a3:67:18:29:40:dd:3d:b7:a5:b1:bb:4c:1f:
                    5f:0c:a6:f1:ba:81:63:21:f5
                Exponent: 65537 (0x10001)
        X509v3 extensions:
            Netscape Cert Type: 
                SSL Client, S/MIME
            Netscape Comment: 
                OpenSSL Generated Client Certificate
    Signature Algorithm: sha1WithRSAEncryption
        b2:81:c6:12:e2:fd:6c:d3:03:38:bb:08:9b:49:e7:8f:e6:2e:
        8e:7f:87:b6:81:ef:2f:7b:cd:91:c0:96:2b:df:99:3a:0e:49:
        93:71:58:49:fe:67:19:fa:b2:a3:97:d6:4c:27:fe:30:6c:1c:
        1b:ee:63:33:03:ea:99:66:3c:13:81:bd:c9:bf:0f:8c:ce:42:
        85:40:5d:ed:be:80:89:29:cb:d9:ac:fe:bd:04:6f:f8:4d:90:
        ff:5d:cf:7e:31:ce:ff:fa:e1:47:b1:f8:db:e8:34:7b:e9:8b:
        27:5b:ff:0e:32:e1:23:84:07:d0:21:25:71:27:67:05:d7:44:
        74:7d:37:20:e2:fc:18:37:bb:e0:cc:3b:c6:a6:18:15:c1:d1:
        26:a3:28:17:1d:81:fe:96:ef:4a:14:a1:40:de:48:64:80:34:
        1f:62:68:4f:32:4f:ce:ab:45:41:9c:d9:d3:a3:68:a6:41:d6:
        85:30:e6:bd:b8:74:08:33:8b:46:09:34:df:2b:a1:2f:17:cd:
        5b:d3:0d:62:49:92:2d:7e:c7:a0:fd:de:55:3d:9f:08:92:8b:
        e3:25:4a:7f:43:64:e6:88:0e:4d:b1:49:97:35:f0:a5:c6:2a:
        1d:f1:cd:ad:5e:81:55:03:0f:97:00:ba:9c:fb:10:da:ee:11:
        34:5d:24:7e:4b:79:64:fe:69:25:0e:81:4a:89:7e:e3:3c:d0:
        99:1d:50:73:10:67:85:04:ea:7c:9d:75:b0:07:43:c6:20:92:
        18:a3:7c:b2:33:15:f7:47:91:df:b7:0c:eb:d5:f9:a4:c2:66:
        85:3c:9e:8d:35:be:9b:f5:cb:5b:a5:4d:21:a5:77:89:e2:27:
        d7:c7:54:c0:27:8b:ca:85:01:f7:d5:2c:16:7e:36:67:18:eb:
        4e:aa:d7:be:d1:45:7a:95:d0:7d:1b:3a:f9:c8:0d:d5:c5:53:
        5f:bd:2e:8d:be:3a:c4:36:e0:48:75:38:13:62:bc:e8:05:6f:
        be:e1:d7:0d:08:d1:8e:db:19:9d:cc:cf:d0:0d:4a:45:c6:20:
        bf:c3:d0:d1:4e:e1:16:cf:92:39:8f:e0:f2:8d:30:8b:9b:9a:
        d1:15:b7:6d:15:da:e3:cc:5a:6b:2a:f3:4e:c7:49:ad:00:48:
        c3:94:a2:0c:2a:b3:51:fe:c6:8c:75:16:8b:90:1b:7c:80:b9:
        7c:ee:02:55:cc:62:70:e5:f0:2d:0e:5c:2c:d2:e1:91:64:02:
        e9:d4:9f:2a:ca:0f:f9:b9:9e:95:ee:14:74:b8:90:51:cf:05:
        eb:d9:cb:6f:cb:f5:6d:be:ec:15:db:08:4d:b3:14:3e:a5:f7:
        4d:2e:a0:46:3c:56:0f:39:a1:a6:ef:cd:43:d1:ec:13:04:3e:
        fc:c1:e6:57:a6:fc:ba:c7:55:e5:cf:55:d5:f0:06:32:6d:6a:
        db:a9:e5:57:8c:50:52:f4:b4:e5:81:ba:b2:99:71:30:d5:26:
        d7:e9:f5:15:25:f4:3e:64:56:50:ec:c8:86:00:53:f9:cd:7b:
        32:6b:4f:e3:6a:b0:11:09:2d:70:c6:04:47:99:2d:ef:3f:d4:
        e8:73:c5:db:24:c2:f0:f3:cb:31:a3:e1:ee:56:f1:51:03:a1:
        44:fb:87:3b:24:8d:df:77:60:4a:ec:17:28:35:5e:a5:a4:6b:
        23:2f:80:96:85:88:07:c1:d5:f1:c8:bb:0e:3e:cc:84:36:5f:
        1e:6c:5c:c6:6e:72:e6:d2:81:b8:b7:01:9c:ff:81:32:c1:f2:
        e4:91:27:c7:59:ed:4f:c0:71:26:c1:aa:1c:3e:71:76:87:ae:
        fa:44:4a:09:5a:f0:12:3d:64:78:65:0c:75:80:65:9d:96:20:
        46:ef:a9:bb:02:0a:c3:15:76:c4:3b:29:de:59:e4:83:78:45:
        d8:92:bd:2f:fd:86:93:cc:a0:97:7a:7f:0b:06:29:28:8a:64:
        79:0c:df:5f:f6:92:d9:7e:66:76:c3:33:30:21:2a:0b:f8:bd:
        a3:11:d6:88:06:55:d7:ba:ee:2f:aa:57:5e:f8:9a:af:fa:5a:
        70:69:0d:b4:ce:39:ff:d0:85:66:5c:f1:f4:b6:0d:aa:4e:14:
        a2:50:a5:6e:a0:ef:b0:06:42:54:a3:e9:70:c4:5a:33:d7:12:
        04:40:59:36:86:95:5c:a8:c0:a7:f4:10:e2:c1:f1:39:42:6e:
        51:9e:78:c0:cf:92:59:28:86:72:ac:71:1c:91:ef:75:77:d6:
        8c:12:c7:eb:95:1c:e3:a4:6e:e1:e6:32:3b:96:62:d3:9b:14:
        71:1f:fa:4e:e8:30:99:d2:8a:ec:2f:63:5e:c2:6d:00:e3:a1:
        2e:07:12:d9:63:b9:c9:78:64:08:96:51:f2:56:b2:44:84:7e:
        10:f4:1a:ad:03:ce:bd:a9:10:c3:7d:74:81:b7:3d:ea:ef:d5:
        63:5d:c3:a2:15:35:2c:6b:f7:71:b1:c0:64:d4:26:44:10:b6:
        d4:0d:ca:70:33:31:82:af:16:ba:b0:55:67:74:03:3b:86:9e:
        2b:46:dc:7e:de:41:46:48:bb:d0:53:d1:4b:df:6d:2b:f4:61:
        58:8d:41:bb:95:1e:48:ed:0e:06:b8:ef:f3:ad:34:e3:16:b2:
        e6:05:91:da:59:ac:51:9d:41:eb:68:80:0e:d1:55:42:5c:b5:
        1f:88:8e:61:c6:bf:e3:bb:47:37:20:80:e7:7e:73:34
-----BEGIN CERTIFICATE-----
MIIF/DCCAeSgAwIBAgICAX8wDQYJKoZIhvcNAQEFBQAwWTELMAkGA1UEBhMCVUcx
DzANBgNVBAcTBlRyb3BpYzEPMA0GA1UEChMGVXRvcGlhMRMwEQYDVQQLEwpSZWxh
eGF0aW9uMRMwEQYDVQQDEwp0aGUgYmlnIENBMB4XDTExMTIxNTIyMjQzM1oXDTI1
MDgyMzIyMjQzM1owYTELMAkGA1UEBhMCVUcxDzANBgNVBAcTBlRyb3BpYzEPMA0G
A1UEChMGVXRvcGlhMRMwEQYDVQQLEwpSZWxheGF0aW9uMRswGQYDVQQDExJiaWcg
Y2xpZW50IHJldm9rZWQwgZ8wDQYJKoZIhvcNAQEBBQADgY0AMIGJAoGBAMD0Md4A
yX0Agx5N89LgcBnlmo0kbuD54ZMO83Z2o4PJT22aXV6b0NHsCDBbmXclsxJ2KABG
Wr02seqxCa6eNa2WkrCxjFhnaRWtYzVwd/HkTUpJEBR/Zunywi/75aWPZID4y/wd
eHnn6jmjZxgpQN09t6Wxu0wfXwym8bqBYyH1AgMBAAGjSjBIMBEGCWCGSAGG+EIB
AQQEAwIFoDAzBglghkgBhvhCAQ0EJhYkT3BlblNTTCBHZW5lcmF0ZWQgQ2xpZW50
IENlcnRpZmljYXRlMA0GCSqGSIb3DQEBBQUAA4IEAQCygcYS4v1s0wM4uwibSeeP
5i6Of4e2ge8ve82RwJYr35k6DkmTcVhJ/mcZ+rKjl9ZMJ/4wbBwb7mMzA+qZZjwT
gb3Jvw+MzkKFQF3tvoCJKcvZrP69BG/4TZD/Xc9+Mc7/+uFHsfjb6DR76YsnW/8O
MuEjhAfQISVxJ2cF10R0fTcg4vwYN7vgzDvGphgVwdEmoygXHYH+lu9KFKFA3khk
gDQfYmhPMk/Oq0VBnNnTo2imQdaFMOa9uHQIM4tGCTTfK6EvF81b0w1iSZItfseg
/d5VPZ8IkovjJUp/Q2TmiA5NsUmXNfClxiod8c2tXoFVAw+XALqc+xDa7hE0XSR+
S3lk/mklDoFKiX7jPNCZHVBzEGeFBOp8nXWwB0PGIJIYo3yyMxX3R5Hftwzr1fmk
wmaFPJ6NNb6b9ctbpU0hpXeJ4ifXx1TAJ4vKhQH31SwWfjZnGOtOqte+0UV6ldB9
Gzr5yA3VxVNfvS6NvjrENuBIdTgTYrzoBW++4dcNCNGO2xmdzM/QDUpFxiC/w9DR
TuEWz5I5j+DyjTCLm5rRFbdtFdrjzFprKvNOx0mtAEjDlKIMKrNR/saMdRaLkBt8
gLl87gJVzGJw5fAtDlws0uGRZALp1J8qyg/5uZ6V7hR0uJBRzwXr2ctvy/VtvuwV
2whNsxQ+pfdNLqBGPFYPOaGm781D0ewTBD78weZXpvy6x1Xlz1XV8AYybWrbqeVX
jFBS9LTlgbqymXEw1SbX6fUVJfQ+ZFZQ7MiGAFP5zXsya0/jarARCS1wxgRHmS3v
P9Toc8XbJMLw88sxo+HuVvFRA6FE+4c7JI3fd2BK7BcoNV6lpGsjL4CWhYgHwdXx
yLsOPsyENl8ebFzGbnLm0oG4twGc/4EywfLkkSfHWe1PwHEmwaocPnF2h676REoJ
WvASPWR4ZQx1gGWdliBG76m7AgrDFXbEOyneWeSDeEXYkr0v/YaTzKCXen8LBiko
imR5DN9f9pLZfmZ2wzMwISoL+L2jEdaIBlXXuu4vqlde+Jqv+lpwaQ20zjn/0IVm
XPH0tg2qThSiUKVuoO+wBkJUo+lwxFoz1xIEQFk2hpVcqMCn9BDiwfE5Qm5RnnjA
z5JZKIZyrHEcke91d9aMEsfrlRzjpG7h5jI7lmLTmxRxH/pO6DCZ0orsL2Newm0A
46EuBxLZY7nJeGQIllHyVrJEhH4Q9BqtA869qRDDfXSBtz3q79VjXcOiFTUsa/dx
scBk1CZEELbUDcpwMzGCrxa6sFVndAM7hp4rRtx+3kFGSLvQU9FL320r9GFYjUG7
lR5I7Q4GuO/zrTTjFrLmBZHaWaxRnUHraIAO0VVCXLUfiI5hxr/ju0c3IIDnfnM0
-----END CERTIFICATE-----
