Certificate:
    Data:
        Version: 3 (0x2)
        Serial Number: 376 (0x178)
        Signature Algorithm: sha224WithRSAEncryption
        Issuer: C=UG, L=Tropic, O=Utopia, OU=Relaxation, CN=the big CA
        Validity
            Not Before: Dec 15 22:24:31 2011 GMT
            Not After : Aug 23 22:24:31 2025 GMT
        Subject: C=UG, L=Tropic, O=Utopia, OU=Relaxation, CN=big client with sha224 hash
        Subject Public Key Info:
            Public Key Algorithm: rsaEncryption
            RSA Public Key: (1024 bit)
                Modulus (1024 bit):
                    00:b3:72:cf:47:03:b2:42:38:74:7d:53:fc:2f:ec:
                    8f:6d:fe:ec:17:b4:62:63:e8:c2:47:23:34:0f:e0:
                    1c:69:57:cc:4a:58:91:9f:e5:3a:6b:48:56:78:47:
                    e2:11:46:56:ae:9b:23:63:ff:31:d1:63:af:e7:51:
                    75:8b:3a:71:d4:b5:be:3d:86:01:e6:ab:36:bd:c9:
                    ea:d5:22:a0:7c:53:dd:73:69:45:61:75:a7:71:12:
                    28:91:15:9c:1d:5b:25:87:f9:26:3c:f4:0c:37:fa:
                    e6:9b:c0:78:80:3a:4f:14:f1:68:73:2a:63:6b:84:
                    6f:da:dc:b1:71:43:86:94:dd
                Exponent: 65537 (0x10001)
        X509v3 extensions:
            Netscape Cert Type: 
                SSL Client, S/MIME
            Netscape Comment: 
                OpenSSL Generated Client Certificate
    Signature Algorithm: sha224WithRSAEncryption
        ae:4a:fc:5e:4b:ce:98:0f:a8:7c:52:6c:b9:c7:4c:ec:6e:8a:
        d7:00:94:76:65:a3:81:23:8e:d8:8a:bb:fd:5c:7e:05:3f:57:
        c2:44:0f:cb:37:86:c4:35:fe:d3:97:fd:0c:3b:3a:fe:34:2c:
        75:52:6b:6b:53:29:5c:05:f9:76:c3:65:42:f3:d7:ed:e6:26:
        39:a4:92:ac:42:06:63:70:06:12:d7:94:41:a1:4f:03:17:2f:
        6c:0b:7b:35:e6:43:a5:03:70:d3:98:93:93:73:8a:98:ae:51:
        72:04:a4:f3:f7:25:49:2d:fa:17:74:74:d5:0b:47:74:51:29:
        aa:b4:d8:e2:49:a0:2b:ea:1c:2b:6b:ba:e2:e3:2f:a9:fb:e5:
        be:0f:80:8f:63:1d:f2:0a:d0:a6:10:e9:76:6a:c5:f9:04:f8:
        85:e3:a3:d8:d7:9e:ad:12:0b:8f:07:da:c1:c8:23:23:54:ff:
        95:4e:60:38:e0:0b:43:90:25:65:3e:d5:a3:08:1f:e6:ad:44:
        60:01:6a:22:f6:cd:64:90:30:05:41:52:ff:6c:72:be:aa:76:
        3f:cd:d7:dc:01:df:29:83:50:0a:c5:63:32:98:f4:7a:c9:71:
        a2:35:dd:1d:8f:e3:a0:3a:15:e7:b9:4a:19:36:f3:d9:ce:d0:
        7a:a6:e3:cc:a4:38:d1:23:f8:8f:d0:98:b2:ee:fb:4b:a0:08:
        c6:2d:a4:8b:1f:e6:06:b2:b0:43:16:9d:dd:f1:ca:13:c9:8c:
        cf:19:e6:ad:7b:11:df:d4:08:78:a6:95:5b:1f:31:e8:fb:93:
        15:93:0a:73:82:76:82:58:67:18:44:49:9d:15:30:fd:d3:e9:
        18:b4:61:35:9d:b0:2a:70:00:df:27:f3:ed:8b:05:84:13:88:
        35:fc:3a:29:05:9c:5c:67:c1:a9:82:16:0e:33:93:29:e9:dd:
        da:df:72:47:33:b4:14:b8:47:af:0f:b4:32:0c:00:ef:38:1b:
        4c:f0:a2:10:14:5e:4a:f4:68:4c:e9:24:f2:ca:a7:5d:4f:fe:
        8d:9d:72:df:f0:c8:8f:36:37:d8:38:be:df:0f:e2:1c:af:b9:
        73:95:a2:c5:93:dd:db:e0:5c:14:75:0b:c5:75:3d:85:1b:79:
        00:f1:8b:31:cb:9e:31:6f:da:38:e8:db:2f:2c:9c:76:e5:b9:
        2c:ed:20:b2:1a:df:6b:9f:a3:5a:28:7b:35:9e:71:5f:66:28:
        bf:98:30:6f:e4:eb:b0:14:78:e8:70:13:af:12:c6:7b:4d:a3:
        69:f4:08:41:aa:81:b3:44:94:4b:0c:5e:42:9c:0e:01:ac:63:
        4b:59:d7:0c:af:30:a2:d9:90:85:ec:47:c5:6b:79:81:33:e0:
        0c:8c:e6:aa:7f:e3:cf:66:8f:b7:43:7b:0d:03:ad:32:96:37:
        01:9a:f4:2d:66:5d:69:f1:dd:0e:b1:b3:00:eb:a3:b9:f8:92:
        b7:c5:8d:47:b4:8c:fc:8b:f5:c1:12:35:d7:7c:22:a7:43:c1:
        8d:c1:92:0c:13:04:52:56:ea:68:be:04:e0:ff:a3:cf:22:17:
        4a:0a:46:10:d0:dd:15:55:28:17:86:b8:87:b7:a8:b5:1a:2c:
        13:07:3a:92:a4:6d:44:04:3f:6a:2b:b2:b1:6e:eb:a8:58:db:
        3a:24:02:ef:1d:02:35:df:01:be:27:7c:be:5d:08:8c:01:82:
        22:95:0d:37:e1:12:1d:c3:42:a4:3c:b5:47:31:fd:25:f3:1e:
        ea:89:36:da:9f:f5:83:51:fb:6f:c7:6f:fa:9b:7e:75:db:6e:
        99:eb:a3:55:be:80:ff:db:ba:bc:71:e4:8d:5c:94:a0:a2:11:
        d5:70:cc:4d:22:f3:37:21:79:1d:3a:a6:f1:50:81:e4:bf:ad:
        c4:e4:1a:bc:78:85:59:89:04:82:f2:0e:c4:14:c0:36:bd:ff:
        36:1e:d1:d4:92:59:e4:bb:0a:74:d0:4f:66:47:36:0d:70:87:
        79:35:00:bf:7e:72:b4:36:95:cd:3f:88:59:4f:98:75:ab:28:
        56:c2:32:b0:06:62:0f:c0:14:c1:d9:92:a8:e2:b4:09:92:93:
        7c:cc:c6:52:6e:f8:6c:fc:16:88:c6:e3:36:73:0c:e1:49:59:
        31:6c:3d:ba:2c:71:c8:a6:b8:9c:dd:6e:1c:63:5c:9c:56:e6:
        d2:a9:38:22:8b:2f:90:a4:7e:bc:78:72:15:b7:7d:1d:e0:87:
        22:ad:ae:0a:81:bf:a4:78:53:59:09:ac:4c:f9:7b:5b:f9:42:
        65:c9:5c:e5:69:09:07:b0:8d:7a:0e:cd:3c:42:f0:2f:55:b1:
        1b:bb:4c:23:cc:35:d6:b8:3e:d3:49:4b:00:41:50:04:d2:7e:
        41:7c:73:2f:69:88:91:62:4c:c1:40:13:71:89:72:72:ee:73:
        3d:80:3e:e8:98:25:02:71:b1:ed:c0:81:88:66:35:bb:dd:93:
        1b:60:2a:46:ed:5a:0e:61:c9:3e:a1:c4:aa:2d:2a:9a:7f:02:
        63:8b:9b:c1:62:6c:28:67:3b:5b:72:4d:15:ed:7e:1c:48:0c:
        bb:8f:c9:a8:37:98:19:a7:35:51:11:0b:0a:9f:c2:ae:2d:c4:
        ad:b0:82:0c:01:12:5b:0a:96:1f:f4:e4:8a:00:c9:c5:ac:ba:
        c6:1f:96:6a:b8:e5:b4:12:9f:4d:bd:ec:a8:63:cf:e6
-----BEGIN CERTIFICATE-----
MIIGBTCCAe2gAwIBAgICAXgwDQYJKoZIhvcNAQEOBQAwWTELMAkGA1UEBhMCVUcx
DzANBgNVBAcTBlRyb3BpYzEPMA0GA1UEChMGVXRvcGlhMRMwEQYDVQQLEwpSZWxh
eGF0aW9uMRMwEQYDVQQDEwp0aGUgYmlnIENBMB4XDTExMTIxNTIyMjQzMVoXDTI1
MDgyMzIyMjQzMVowajELMAkGA1UEBhMCVUcxDzANBgNVBAcTBlRyb3BpYzEPMA0G
A1UEChMGVXRvcGlhMRMwEQYDVQQLEwpSZWxheGF0aW9uMSQwIgYDVQQDExtiaWcg
Y2xpZW50IHdpdGggc2hhMjI0IGhhc2gwgZ8wDQYJKoZIhvcNAQEBBQADgY0AMIGJ
AoGBALNyz0cDskI4dH1T/C/sj23+7Be0YmPowkcjNA/gHGlXzEpYkZ/lOmtIVnhH
4hFGVq6bI2P/MdFjr+dRdYs6cdS1vj2GAearNr3J6tUioHxT3XNpRWF1p3ESKJEV
nB1bJYf5Jjz0DDf65pvAeIA6TxTxaHMqY2uEb9rcsXFDhpTdAgMBAAGjSjBIMBEG
CWCGSAGG+EIBAQQEAwIFoDAzBglghkgBhvhCAQ0EJhYkT3BlblNTTCBHZW5lcmF0
ZWQgQ2xpZW50IENlcnRpZmljYXRlMA0GCSqGSIb3DQEBDgUAA4IEAQCuSvxeS86Y
D6h8Umy5x0zsborXAJR2ZaOBI47Yirv9XH4FP1fCRA/LN4bENf7Tl/0MOzr+NCx1
UmtrUylcBfl2w2VC89ft5iY5pJKsQgZjcAYS15RBoU8DFy9sC3s15kOlA3DTmJOT
c4qYrlFyBKTz9yVJLfoXdHTVC0d0USmqtNjiSaAr6hwra7ri4y+p++W+D4CPYx3y
CtCmEOl2asX5BPiF46PY156tEguPB9rByCMjVP+VTmA44AtDkCVlPtWjCB/mrURg
AWoi9s1kkDAFQVL/bHK+qnY/zdfcAd8pg1AKxWMymPR6yXGiNd0dj+OgOhXnuUoZ
NvPZztB6puPMpDjRI/iP0Jiy7vtLoAjGLaSLH+YGsrBDFp3d8coTyYzPGeatexHf
1Ah4ppVbHzHo+5MVkwpzgnaCWGcYREmdFTD90+kYtGE1nbAqcADfJ/PtiwWEE4g1
/DopBZxcZ8GpghYOM5Mp6d3a33JHM7QUuEevD7QyDADvOBtM8KIQFF5K9GhM6STy
yqddT/6NnXLf8MiPNjfYOL7fD+Icr7lzlaLFk93b4FwUdQvFdT2FG3kA8Ysxy54x
b9o46NsvLJx25bks7SCyGt9rn6NaKHs1nnFfZii/mDBv5OuwFHjocBOvEsZ7TaNp
9AhBqoGzRJRLDF5CnA4BrGNLWdcMrzCi2ZCF7EfFa3mBM+AMjOaqf+PPZo+3Q3sN
A60yljcBmvQtZl1p8d0OsbMA66O5+JK3xY1HtIz8i/XBEjXXfCKnQ8GNwZIMEwRS
VupovgTg/6PPIhdKCkYQ0N0VVSgXhriHt6i1GiwTBzqSpG1EBD9qK7KxbuuoWNs6
JALvHQI13wG+J3y+XQiMAYIilQ034RIdw0KkPLVHMf0l8x7qiTban/WDUftvx2/6
m351226Z66NVvoD/27q8ceSNXJSgohHVcMxNIvM3IXkdOqbxUIHkv63E5Bq8eIVZ
iQSC8g7EFMA2vf82HtHUklnkuwp00E9mRzYNcId5NQC/fnK0NpXNP4hZT5h1qyhW
wjKwBmIPwBTB2ZKo4rQJkpN8zMZSbvhs/BaIxuM2cwzhSVkxbD26LHHIpric3W4c
Y1ycVubSqTgiiy+QpH68eHIVt30d4Icira4Kgb+keFNZCaxM+Xtb+UJlyVzlaQkH
sI16Ds08QvAvVbEbu0wjzDXWuD7TSUsAQVAE0n5BfHMvaYiRYkzBQBNxiXJy7nM9
gD7omCUCcbHtwIGIZjW73ZMbYCpG7VoOYck+ocSqLSqafwJji5vBYmwoZztbck0V
7X4cSAy7j8moN5gZpzVREQsKn8KuLcStsIIMARJbCpYf9OSKAMnFrLrGH5ZquOW0
Ep9NveyoY8/m
-----END CERTIFICATE-----
