Certificate:
    Data:
        Version: 3 (0x2)
        Serial Number: 377 (0x179)
        Signature Algorithm: sha256WithRSAEncryption
        Issuer: C=UG, L=Tropic, O=Utopia, OU=Relaxation, CN=the big CA
        Validity
            Not Before: Dec 15 22:24:31 2011 GMT
            Not After : Aug 23 22:24:31 2025 GMT
        Subject: C=UG, L=Tropic, O=Utopia, OU=Relaxation, CN=big client with sha256 hash
        Subject Public Key Info:
            Public Key Algorithm: rsaEncryption
            RSA Public Key: (1024 bit)
                Modulus (1024 bit):
                    00:b4:50:5b:99:6f:7d:b5:ea:6a:2c:70:ea:bf:4f:
                    22:e8:d1:d1:e6:23:59:e1:63:1d:ec:ec:0c:c8:96:
                    a9:a5:80:d6:d1:d1:12:76:9d:b4:16:40:1f:41:41:
                    7c:6a:6f:93:63:1e:8d:fe:03:73:2b:cb:1f:c6:8a:
                    f1:76:45:d5:d4:8e:42:cf:60:25:68:e7:c7:fb:3c:
                    ec:84:bc:b3:37:f6:80:6b:9c:75:0a:aa:45:98:c3:
                    d2:7f:c6:8d:67:0a:87:6f:da:fb:41:5e:d1:eb:cd:
                    12:6e:33:f6:85:60:4e:2c:06:4d:47:c0:e7:38:c5:
                    88:50:23:28:e6:da:8f:55:13
                Exponent: 65537 (0x10001)
        X509v3 extensions:
            Netscape Cert Type: 
                SSL Client, S/MIME
            Netscape Comment: 
                OpenSSL Generated Client Certificate
    Signature Algorithm: sha256WithRSAEncryption
        d1:d9:1e:42:5e:3f:44:a9:a1:3e:66:f8:c1:d1:4f:d1:54:b5:
        f0:bd:79:3f:1a:2f:ed:86:bd:32:1e:4b:64:72:5c:89:e6:86:
        94:17:5b:38:b3:1b:73:d8:dd:4a:d8:8e:c5:80:26:e1:d8:23:
        27:12:7b:03:db:7f:e4:b7:dc:df:1e:61:bb:3a:b2:7f:d1:39:
        fc:2a:fa:4f:9c:cd:70:44:ff:9b:ef:4b:37:d3:85:09:9d:a9:
        b7:b8:38:27:b2:83:5a:f1:fd:06:5c:21:c0:70:ac:1e:df:8f:
        ed:b8:6d:f9:92:91:b2:d4:4f:42:e1:a6:b0:79:81:56:74:30:
        47:41:16:c9:fa:da:2f:e7:b4:79:34:97:eb:85:0d:96:b3:4f:
        e0:fc:7e:a9:35:1f:7d:f7:f6:81:a3:f2:5b:7f:dc:6a:3f:c5:
        e3:45:71:33:5e:bd:dd:d2:e5:2a:6e:b3:89:ea:0d:fb:03:80:
        1f:8a:39:33:c7:4b:7f:f5:46:eb:a5:f1:7f:b4:5a:02:fe:f0:
        d1:88:58:52:41:c3:44:bc:34:a1:58:2f:d3:a9:9e:71:84:99:
        a2:52:a0:1e:9a:ec:26:e0:0b:cc:9a:57:0c:8f:4d:cc:93:50:
        c9:cb:c8:93:ce:cf:a5:1e:5f:5c:43:0c:be:e4:3c:ed:60:be:
        80:70:29:32:dd:3c:2f:ca:af:96:e6:6e:7c:79:de:7c:ff:fe:
        d4:62:3f:19:0e:d2:da:06:86:b7:fa:31:bc:a3:43:43:0c:88:
        f7:af:4d:e2:e1:dd:f8:ca:c9:ca:2a:4c:79:66:c5:df:b0:65:
        31:cf:94:30:14:77:ab:7b:5c:34:db:39:ee:e2:f2:50:29:67:
        91:2f:b1:ef:54:55:c6:f3:e9:97:47:c9:75:14:3e:eb:3c:2a:
        9d:99:8e:80:aa:e6:74:ca:b6:7b:19:40:68:60:e2:3c:ad:02:
        21:4c:83:9c:24:ab:ba:a8:93:93:dd:f4:e2:bb:88:4e:b8:34:
        41:32:f3:b7:27:f5:d6:36:a9:b2:55:74:cd:94:4d:6a:d5:b2:
        8f:d3:76:4b:d5:e5:c7:a2:db:ec:16:ff:f1:3a:42:97:c4:82:
        5b:93:86:1c:7f:6c:b3:ac:28:ed:a8:22:6c:b7:4c:ae:1e:31:
        29:08:f0:04:fc:3c:50:7b:dc:30:85:e3:b4:c0:e6:d7:bd:f5:
        8a:26:72:96:f7:5c:dd:80:56:0c:92:74:b1:fb:1c:19:90:81:
        32:34:59:d4:f2:3f:8b:b4:04:d1:19:e5:1f:7f:95:83:bf:6f:
        7f:ff:48:37:e2:f1:ad:c9:be:a6:72:35:3d:55:26:11:bc:5f:
        2a:94:e6:25:e8:6c:8b:0d:73:41:eb:5a:05:94:07:b4:11:1d:
        00:1c:54:2a:fc:9e:04:bc:e1:20:f9:00:55:e4:b4:92:b6:9a:
        6c:ba:6a:fe:01:d5:6b:6f:c3:84:59:4c:3f:2b:89:7a:25:f4:
        ef:4f:89:7c:b9:f4:ab:74:93:d8:eb:a2:52:98:91:8c:58:02:
        44:98:bd:9f:9b:e2:8e:7f:3b:a5:32:3d:92:9e:5e:48:57:49:
        a4:4e:af:eb:f4:0e:c8:21:30:93:9f:8b:73:c2:9c:5c:a3:72:
        11:cd:f9:33:30:a3:fa:28:29:08:7b:09:c8:e3:f0:8e:4c:d6:
        35:ea:4b:4d:f5:81:f5:01:0a:5c:59:ae:6b:d5:dc:d9:c7:a5:
        52:e8:e0:f0:76:97:15:da:13:c9:b7:c9:0e:91:e8:3a:c9:fc:
        77:f6:00:cb:cf:d9:52:86:72:4a:11:3a:2b:f9:d9:20:01:be:
        71:5f:69:87:80:94:02:be:ea:af:5c:7a:05:c5:ba:12:66:56:
        fb:72:e4:89:c6:ba:89:b1:76:30:6a:90:01:b3:80:97:11:98:
        ed:b8:68:44:79:47:d9:4d:27:86:6f:09:22:99:a8:64:01:70:
        89:a4:43:79:92:a9:aa:0d:86:c6:0a:97:60:3b:81:c8:2a:83:
        d7:34:76:2d:e5:d1:f3:01:8e:cf:eb:2d:90:0a:2d:f6:6f:48:
        92:63:c6:1c:7e:e9:77:a7:4f:ca:f2:f8:1d:0d:80:2c:48:12:
        d9:81:51:ea:3e:f8:36:b6:d5:e8:9c:8a:28:f3:46:5e:01:c2:
        dd:40:5b:dd:a7:e3:05:b0:21:a5:8d:81:e6:bd:3f:e0:4c:d1:
        bb:40:6b:3f:3f:0e:7c:74:50:2b:98:fc:51:ab:38:32:c9:20:
        bb:d2:4f:68:04:d3:a4:26:7c:30:39:40:be:2c:0f:3b:2a:b1:
        07:b2:05:22:b8:e7:5a:48:37:06:0c:33:f8:b3:6d:e6:52:c3:
        19:fb:ee:8a:c2:6d:1a:7e:c8:d2:34:0a:ec:8d:32:e7:82:72:
        3e:84:c1:a1:32:b8:61:4a:48:0e:85:18:0b:63:42:74:6a:9f:
        6e:b6:da:c9:91:16:35:62:22:34:0b:19:72:41:ac:95:e3:83:
        89:91:42:e5:6c:66:6b:0a:a8:a4:c2:ab:a1:e2:42:e7:99:c3:
        c1:01:fe:f0:b3:da:bc:43:04:47:c3:a3:d1:3a:14:b5:6c:91:
        35:40:db:b9:9f:b5:dc:33:04:de:93:a0:42:da:9a:4c:21:be:
        ba:74:08:5f:f9:96:87:0f:c5:71:76:cf:8f:4f:98:9d:f0:ab:
        91:3e:08:57:51:0f:aa:ce:d6:31:b7:03:95:1d:f4:8c
-----BEGIN CERTIFICATE-----
MIIGBTCCAe2gAwIBAgICAXkwDQYJKoZIhvcNAQELBQAwWTELMAkGA1UEBhMCVUcx
DzANBgNVBAcTBlRyb3BpYzEPMA0GA1UEChMGVXRvcGlhMRMwEQYDVQQLEwpSZWxh
eGF0aW9uMRMwEQYDVQQDEwp0aGUgYmlnIENBMB4XDTExMTIxNTIyMjQzMVoXDTI1
MDgyMzIyMjQzMVowajELMAkGA1UEBhMCVUcxDzANBgNVBAcTBlRyb3BpYzEPMA0G
A1UEChMGVXRvcGlhMRMwEQYDVQQLEwpSZWxheGF0aW9uMSQwIgYDVQQDExtiaWcg
Y2xpZW50IHdpdGggc2hhMjU2IGhhc2gwgZ8wDQYJKoZIhvcNAQEBBQADgY0AMIGJ
AoGBALRQW5lvfbXqaixw6r9PIujR0eYjWeFjHezsDMiWqaWA1tHREnadtBZAH0FB
fGpvk2Mejf4DcyvLH8aK8XZF1dSOQs9gJWjnx/s87IS8szf2gGucdQqqRZjD0n/G
jWcKh2/a+0Fe0evNEm4z9oVgTiwGTUfA5zjFiFAjKObaj1UTAgMBAAGjSjBIMBEG
CWCGSAGG+EIBAQQEAwIFoDAzBglghkgBhvhCAQ0EJhYkT3BlblNTTCBHZW5lcmF0
ZWQgQ2xpZW50IENlcnRpZmljYXRlMA0GCSqGSIb3DQEBCwUAA4IEAQDR2R5CXj9E
qaE+ZvjB0U/RVLXwvXk/Gi/thr0yHktkclyJ5oaUF1s4sxtz2N1K2I7FgCbh2CMn
EnsD23/kt9zfHmG7OrJ/0Tn8KvpPnM1wRP+b70s304UJnam3uDgnsoNa8f0GXCHA
cKwe34/tuG35kpGy1E9C4aaweYFWdDBHQRbJ+tov57R5NJfrhQ2Ws0/g/H6pNR99
9/aBo/Jbf9xqP8XjRXEzXr3d0uUqbrOJ6g37A4Afijkzx0t/9UbrpfF/tFoC/vDR
iFhSQcNEvDShWC/TqZ5xhJmiUqAemuwm4AvMmlcMj03Mk1DJy8iTzs+lHl9cQwy+
5DztYL6AcCky3Twvyq+W5m58ed58//7UYj8ZDtLaBoa3+jG8o0NDDIj3r03i4d34
ysnKKkx5ZsXfsGUxz5QwFHere1w02znu4vJQKWeRL7HvVFXG8+mXR8l1FD7rPCqd
mY6AquZ0yrZ7GUBoYOI8rQIhTIOcJKu6qJOT3fTiu4hOuDRBMvO3J/XWNqmyVXTN
lE1q1bKP03ZL1eXHotvsFv/xOkKXxIJbk4Ycf2yzrCjtqCJst0yuHjEpCPAE/DxQ
e9wwheO0wObXvfWKJnKW91zdgFYMknSx+xwZkIEyNFnU8j+LtATRGeUff5WDv29/
/0g34vGtyb6mcjU9VSYRvF8qlOYl6GyLDXNB61oFlAe0ER0AHFQq/J4EvOEg+QBV
5LSStppsumr+AdVrb8OEWUw/K4l6JfTvT4l8ufSrdJPY66JSmJGMWAJEmL2fm+KO
fzulMj2Snl5IV0mkTq/r9A7IITCTn4tzwpxco3IRzfkzMKP6KCkIewnI4/COTNY1
6ktN9YH1AQpcWa5r1dzZx6VS6ODwdpcV2hPJt8kOkeg6yfx39gDLz9lShnJKETor
+dkgAb5xX2mHgJQCvuqvXHoFxboSZlb7cuSJxrqJsXYwapABs4CXEZjtuGhEeUfZ
TSeGbwkimahkAXCJpEN5kqmqDYbGCpdgO4HIKoPXNHYt5dHzAY7P6y2QCi32b0iS
Y8Ycful3p0/K8vgdDYAsSBLZgVHqPvg2ttXonIoo80ZeAcLdQFvdp+MFsCGljYHm
vT/gTNG7QGs/Pw58dFArmPxRqzgyySC70k9oBNOkJnwwOUC+LA87KrEHsgUiuOda
SDcGDDP4s23mUsMZ++6Kwm0afsjSNArsjTLngnI+hMGhMrhhSkgOhRgLY0J0ap9u
ttrJkRY1YiI0CxlyQayV44OJkULlbGZrCqikwquh4kLnmcPBAf7ws9q8QwRHw6PR
OhS1bJE1QNu5n7XcMwTek6BC2ppMIb66dAhf+ZaHD8Vxds+PT5id8KuRPghXUQ+q
ztYxtwOVHfSM
-----END CERTIFICATE-----
