Certificate:
    Data:
        Version: 3 (0x2)
        Serial Number: 381 (0x17d)
        Signature Algorithm: sha1WithRSAEncryption
        Issuer: C=UG, L=Tropic, O=Utopia, OU=Relaxation, CN=the big CA
        Validity
            Not Before: Jan  1 00:00:00 2035 GMT
            Not After : Aug 23 22:24:33 2025 GMT
        Subject: C=UG, L=Tropic, O=Utopia, OU=Relaxation, CN=big client future
        Subject Public Key Info:
            Public Key Algorithm: rsaEncryption
            RSA Public Key: (1024 bit)
                Modulus (1024 bit):
                    00:b3:a0:a8:c8:b7:0f:d9:0b:20:41:f4:9a:1a:72:
                    64:23:a3:fe:0a:ee:07:74:bf:50:90:d1:29:a6:83:
                    41:7a:30:bc:c6:54:b2:ce:e9:08:92:95:15:17:cd:
                    33:84:43:c5:11:99:d9:fe:73:4a:9e:f1:64:4f:98:
                    5b:9f:ae:a5:b0:3f:b5:5f:dd:8e:7a:d5:8e:5f:6a:
                    1c:06:21:30:21:76:86:49:82:1e:b9:55:78:af:60:
                    c2:63:dc:e3:f1:1a:03:05:62:d4:b0:d5:ee:d1:a2:
                    0c:6f:2f:df:42:f0:84:9b:eb:a0:31:9c:c8:05:14:
                    e1:c5:b8:af:9e:7b:af:30:cd
                Exponent: 65537 (0x10001)
        X509v3 extensions:
            Netscape Cert Type: 
                SSL Client, S/MIME
            Netscape Comment: 
                OpenSSL Generated Client Certificate
    Signature Algorithm: sha1WithRSAEncryption
        39:d8:15:72:c4:c2:a2:25:08:04:1e:d5:05:56:b4:eb:b9:c7:
        e5:06:59:95:ee:d9:28:b7:2a:af:89:7b:20:ee:73:df:91:c5:
        b3:6e:44:93:11:a9:64:96:62:d5:1f:00:51:b1:63:60:48:23:
        86:ab:54:5a:b3:00:03:41:d6:6d:3d:7e:78:d5:d1:17:bd:3a:
        a9:cf:6a:4c:5a:be:8a:39:03:b8:ea:4a:5f:94:ce:f7:1d:8d:
        a0:8d:a6:3c:93:2a:37:0b:c2:70:d7:b2:aa:d3:fb:41:40:72:
        30:2c:9f:36:b5:0d:6b:af:73:39:eb:b3:08:5f:2d:51:40:bc:
        19:59:25:71:18:af:ce:41:49:fd:d4:d3:c3:bb:81:de:89:35:
        55:24:3b:cc:36:ba:95:02:6e:f8:e6:41:b3:2f:18:ab:76:1d:
        ea:fc:a3:88:5d:2f:72:ce:33:e6:ec:40:03:c4:6a:34:ba:d5:
        5c:7d:c1:09:81:5a:40:c6:9b:68:f3:9a:33:c2:5b:47:2c:d4:
        97:cb:38:55:19:c0:7f:ad:b4:79:e3:31:9f:bf:c6:f0:1d:34:
        2b:ba:82:c3:a1:10:1e:ea:6f:16:ae:40:3c:ea:30:20:92:80:
        68:5f:0a:39:97:c7:6d:48:13:80:0d:71:10:48:92:a3:f3:7e:
        51:c4:cc:f8:fc:52:97:9b:cb:b5:8a:11:cc:fb:7e:ac:12:52:
        31:8d:4b:04:30:f7:2d:6b:09:45:51:0b:25:c3:2b:60:83:d3:
        e1:c5:94:95:a5:3f:fb:2f:95:ad:77:a4:17:99:89:be:a2:b3:
        56:bb:6a:5c:cf:86:dc:e9:6f:cc:d3:42:cc:0a:2f:df:ba:f8:
        a9:c3:e0:31:c0:d6:95:fb:aa:b5:ed:60:38:15:41:78:09:7d:
        08:b9:d3:9a:ac:e0:4e:97:71:b6:e6:d4:81:56:e8:97:de:d8:
        07:25:3c:88:a1:8e:ba:5e:ec:82:dd:db:ad:0f:a0:d0:58:cc:
        30:7c:fc:b7:c1:2c:24:89:e5:c5:c8:f2:19:1a:f2:ae:41:0a:
        04:1c:f5:30:7c:c7:b9:93:14:08:75:12:e8:4e:c8:63:14:b0:
        80:26:9f:0f:fa:91:88:a5:24:ab:f2:ca:a0:34:2e:da:2d:79:
        2a:d4:cc:38:a2:99:37:6e:00:d0:b0:eb:f3:be:68:84:9a:ab:
        8d:fc:35:8b:cf:8b:c8:04:c0:ec:ed:c0:51:68:37:cc:bd:26:
        fd:06:18:b4:83:3e:a5:04:39:f0:3c:08:58:09:15:95:e0:c4:
        39:5e:ef:ce:02:bd:0f:94:0d:f8:47:6c:3f:e1:fe:d7:55:6c:
        ef:51:92:47:9c:fd:3c:3d:66:a5:64:26:9f:b2:87:54:1d:a9:
        4f:14:df:e1:92:6a:73:bd:e0:ce:ed:58:0e:ac:a1:26:9c:4c:
        36:e7:a7:38:63:54:80:5d:c8:a1:a2:91:16:1f:7a:e2:f9:10:
        70:9a:27:67:fc:31:1a:ed:ed:ee:77:2a:85:e8:74:5e:98:53:
        db:a4:37:bd:d7:7b:04:07:96:e3:69:b7:1f:c1:7e:c5:95:c1:
        e4:24:96:92:51:fc:73:10:01:00:56:17:93:7f:31:39:34:a3:
        8b:db:fd:eb:1a:94:68:38:5f:9d:27:71:40:5b:52:e8:f9:60:
        e6:2c:c5:4d:34:83:60:89:f8:bd:87:7c:72:02:25:3d:08:78:
        54:d2:52:27:31:c4:bf:cf:f0:f6:98:b8:0c:4c:c7:cb:cc:94:
        5f:86:f3:6a:98:fa:ae:42:31:08:6b:92:0d:f1:c2:11:18:b7:
        3c:15:51:09:8a:43:76:d5:bd:d4:b0:d2:2f:fb:53:d4:87:15:
        84:10:b5:76:03:8c:a5:de:c0:b4:c8:33:ca:74:ae:59:de:c2:
        4d:e2:3e:7b:cf:ff:2e:2c:a6:0c:c0:c1:58:90:63:8d:22:f0:
        37:92:58:39:5d:ee:21:a8:42:86:65:7b:6f:a7:ec:61:81:c1:
        73:62:cb:d9:c9:a2:52:70:2a:82:d3:6e:33:e1:bc:80:e7:ca:
        12:4b:bd:08:ac:5f:98:77:e8:b0:f5:53:d6:4b:7f:56:fb:66:
        f0:d9:20:f3:dd:ac:7e:0a:99:ba:8b:57:93:3e:98:80:d9:00:
        ad:29:b8:34:ef:16:18:8a:c5:cb:0e:75:ee:3f:48:8c:b0:48:
        d8:54:6c:22:40:56:23:6e:f4:09:29:3c:98:d1:98:7f:fc:1c:
        ca:47:94:34:aa:79:6b:fe:b3:c8:98:89:72:da:4b:65:d8:04:
        d3:b1:04:e8:6c:b6:49:58:d3:92:82:da:c1:07:23:02:49:eb:
        1d:84:c1:9e:b1:e8:0a:6b:50:36:29:33:83:ee:86:54:22:a4:
        7d:36:74:5e:7b:36:a7:cf:a9:c0:df:74:42:04:5c:a1:25:c5:
        bd:68:1a:fc:68:96:42:7a:7b:85:8b:d2:d6:51:2e:2e:9c:c4:
        74:46:7f:6d:32:b5:5f:63:17:33:d7:9f:ce:d3:2e:22:5d:36:
        47:cf:de:df:67:30:20:f2:16:c5:e3:eb:0f:e4:ad:bc:24:e0:
        7d:2d:e2:dd:3a:d6:5e:6b:e3:04:cc:03:2a:e4:8f:76:26:26:
        3e:80:65:c8:7f:42:9b:7f:1d:07:bb:de:ef:d3:32:29:19:2e:
        5c:8d:55:9f:19:76:d5:1a:f9:c3:d6:f2:ec:9a:93:25
-----BEGIN CERTIFICATE-----
MIIF+zCCAeOgAwIBAgICAX0wDQYJKoZIhvcNAQEFBQAwWTELMAkGA1UEBhMCVUcx
DzANBgNVBAcTBlRyb3BpYzEPMA0GA1UEChMGVXRvcGlhMRMwEQYDVQQLEwpSZWxh
eGF0aW9uMRMwEQYDVQQDEwp0aGUgYmlnIENBMB4XDTM1MDEwMTAwMDAwMFoXDTI1
MDgyMzIyMjQzM1owYDELMAkGA1UEBhMCVUcxDzANBgNVBAcTBlRyb3BpYzEPMA0G
A1UEChMGVXRvcGlhMRMwEQYDVQQLEwpSZWxheGF0aW9uMRowGAYDVQQDExFiaWcg
Y2xpZW50IGZ1dHVyZTCBnzANBgkqhkiG9w0BAQEFAAOBjQAwgYkCgYEAs6CoyLcP
2QsgQfSaGnJkI6P+Cu4HdL9QkNEppoNBejC8xlSyzukIkpUVF80zhEPFEZnZ/nNK
nvFkT5hbn66lsD+1X92OetWOX2ocBiEwIXaGSYIeuVV4r2DCY9zj8RoDBWLUsNXu
0aIMby/fQvCEm+ugMZzIBRThxbivnnuvMM0CAwEAAaNKMEgwEQYJYIZIAYb4QgEB
BAQDAgWgMDMGCWCGSAGG+EIBDQQmFiRPcGVuU1NMIEdlbmVyYXRlZCBDbGllbnQg
Q2VydGlmaWNhdGUwDQYJKoZIhvcNAQEFBQADggQBADnYFXLEwqIlCAQe1QVWtOu5
x+UGWZXu2Si3Kq+JeyDuc9+RxbNuRJMRqWSWYtUfAFGxY2BII4arVFqzAANB1m09
fnjV0Re9OqnPakxavoo5A7jqSl+UzvcdjaCNpjyTKjcLwnDXsqrT+0FAcjAsnza1
DWuvcznrswhfLVFAvBlZJXEYr85BSf3U08O7gd6JNVUkO8w2upUCbvjmQbMvGKt2
Her8o4hdL3LOM+bsQAPEajS61Vx9wQmBWkDGm2jzmjPCW0cs1JfLOFUZwH+ttHnj
MZ+/xvAdNCu6gsOhEB7qbxauQDzqMCCSgGhfCjmXx21IE4ANcRBIkqPzflHEzPj8
Upeby7WKEcz7fqwSUjGNSwQw9y1rCUVRCyXDK2CD0+HFlJWlP/svla13pBeZib6i
s1a7alzPhtzpb8zTQswKL9+6+KnD4DHA1pX7qrXtYDgVQXgJfQi505qs4E6Xcbbm
1IFW6Jfe2AclPIihjrpe7ILd260PoNBYzDB8/LfBLCSJ5cXI8hka8q5BCgQc9TB8
x7mTFAh1EuhOyGMUsIAmnw/6kYilJKvyyqA0LtoteSrUzDiimTduANCw6/O+aISa
q438NYvPi8gEwOztwFFoN8y9Jv0GGLSDPqUEOfA8CFgJFZXgxDle784CvQ+UDfhH
bD/h/tdVbO9Rkkec/Tw9ZqVkJp+yh1QdqU8U3+GSanO94M7tWA6soSacTDbnpzhj
VIBdyKGikRYfeuL5EHCaJ2f8MRrt7e53KoXodF6YU9ukN73XewQHluNptx/BfsWV
weQklpJR/HMQAQBWF5N/MTk0o4vb/esalGg4X50ncUBbUuj5YOYsxU00g2CJ+L2H
fHICJT0IeFTSUicxxL/P8PaYuAxMx8vMlF+G82qY+q5CMQhrkg3xwhEYtzwVUQmK
Q3bVvdSw0i/7U9SHFYQQtXYDjKXewLTIM8p0rlnewk3iPnvP/y4spgzAwViQY40i
8DeSWDld7iGoQoZle2+n7GGBwXNiy9nJolJwKoLTbjPhvIDnyhJLvQisX5h36LD1
U9ZLf1b7ZvDZIPPdrH4KmbqLV5M+mIDZAK0puDTvFhiKxcsOde4/SIywSNhUbCJA
ViNu9AkpPJjRmH/8HMpHlDSqeWv+s8iYiXLaS2XYBNOxBOhstklY05KC2sEHIwJJ
6x2EwZ6x6AprUDYpM4PuhlQipH02dF57NqfPqcDfdEIEXKElxb1oGvxolkJ6e4WL
0tZRLi6cxHRGf20ytV9jFzPXn87TLiJdNkfP3t9nMCDyFsXj6w/krbwk4H0t4t06
1l5r4wTMAyrkj3YmJj6AZch/Qpt/HQe73u/TMikZLlyNVZ8ZdtUa+cPW8uyakyU=
-----END CERTIFICATE-----
