Certificate:
    Data:
        Version: 3 (0x2)
        Serial Number: 374 (0x176)
        Signature Algorithm: sha1WithRSAEncryption
        Issuer: C=UG, L=Tropic, O=Utopia, OU=Relaxation, CN=the big CA
        Validity
            Not Before: Dec 15 22:24:28 2011 GMT
            Not After : Aug 23 22:24:28 2025 GMT
        Subject: C=UG, L=Tropic, O=Utopia, OU=Relaxation, CN=big client
        Subject Public Key Info:
            Public Key Algorithm: rsaEncryption
            RSA Public Key: (1024 bit)
                Modulus (1024 bit):
                    00:c8:dc:d3:96:47:be:cc:62:97:f7:93:f5:08:6b:
                    5c:1d:9e:bc:4e:8b:e0:50:4b:43:ae:2f:9c:77:16:
                    40:97:7d:b3:b7:fc:66:d6:2c:2e:1c:5e:ea:db:0e:
                    6b:db:5b:aa:83:d2:3f:8f:cd:5f:39:e7:17:1f:29:
                    3a:cd:68:c1:ee:f3:0f:5d:66:1a:ec:5c:e0:01:b7:
                    90:60:df:90:be:93:7b:1d:09:18:14:f1:42:2f:d4:
                    2a:07:57:42:b5:14:9b:1e:cb:34:1f:6f:27:6a:89:
                    4d:e5:fc:f0:ce:71:60:75:0b:34:da:a1:75:2d:6a:
                    84:5f:54:c2:c4:9b:90:f1:43
                Exponent: 65537 (0x10001)
        X509v3 extensions:
            Netscape Cert Type: 
                SSL Client, S/MIME
            Netscape Comment: 
                OpenSSL Generated Client Certificate
    Signature Algorithm: sha1WithRSAEncryption
        73:62:d8:e5:73:ad:5f:0e:14:99:b1:ab:6c:ff:e8:03:30:7c:
        b0:8c:d8:1f:66:d9:47:ef:2c:2e:62:59:43:f7:00:dc:a0:30:
        f2:79:51:f6:e9:bf:30:4e:1f:65:00:d2:06:dc:f9:d7:f3:e9:
        cd:94:70:45:55:db:d6:d7:56:b3:1d:fc:cc:4e:f0:f9:7d:76:
        18:73:e1:19:01:1f:de:3e:de:51:8e:f7:1d:f1:1c:e6:ba:f7:
        36:6b:95:c4:c1:8b:c7:30:3e:57:52:1f:b8:5b:2d:1e:38:07:
        bd:20:c9:3b:05:a5:e6:5e:c4:10:56:3f:37:62:8b:f0:42:4e:
        c6:ab:97:e8:58:c3:32:99:ad:35:32:59:77:87:d0:fc:c4:3d:
        51:35:7d:9e:43:d7:de:c3:82:6b:24:f0:77:22:4d:fe:d1:91:
        54:81:a4:ef:05:9b:9f:b1:78:e3:8a:2e:52:0a:95:74:8f:78:
        7d:3a:98:50:2a:da:8a:b0:9a:da:31:05:b4:51:c3:e8:78:2f:
        9f:b7:c3:30:64:03:ab:f4:3a:e8:96:9c:5e:73:fd:9d:7d:18:
        a9:1a:b6:c9:c8:99:6a:97:59:0f:86:43:23:1f:24:6c:23:e7:
        02:fa:21:c6:1f:b0:a6:4c:b1:f9:34:8e:53:f2:ba:86:72:5b:
        1c:bf:88:a2:5f:69:07:3c:14:e2:c9:2d:a4:75:4a:a4:4c:3f:
        4d:cd:81:fb:12:a5:b2:a4:a0:92:92:2b:ee:f2:0b:90:a9:88:
        20:fd:63:00:3d:ba:bc:88:88:ec:cc:b3:69:00:c5:9d:a3:43:
        aa:6d:ec:30:2d:dc:95:16:65:56:ee:79:a5:8f:1a:5f:25:64:
        1f:6a:32:e9:be:27:35:bd:b9:97:76:43:94:71:57:3a:49:4d:
        e2:56:2c:16:52:ec:06:14:49:5c:e8:4e:4b:0b:60:d2:56:ef:
        d2:05:fe:d0:bd:ea:4e:30:c3:6c:bf:2e:bb:e9:04:bb:33:81:
        b6:4b:e5:3c:21:0b:11:10:e7:3f:a8:27:f3:9a:21:db:1c:f3:
        b1:88:d8:39:5e:60:ba:fc:30:51:43:3b:8b:df:92:1c:dd:c0:
        c4:d6:e0:d1:06:61:9b:fb:8f:7e:3f:87:10:07:31:31:2c:9b:
        ac:9d:8f:aa:b9:56:d7:8e:42:36:08:b0:78:1d:2a:5e:3f:6e:
        bc:66:d8:87:be:0c:3c:bf:3e:ae:73:93:4b:63:0f:31:86:77:
        12:90:43:bc:22:1a:9d:52:ec:cb:52:e7:82:4c:18:57:45:09:
        f1:e6:20:e7:51:72:43:e7:ab:28:85:10:9a:51:53:ac:39:49:
        53:9f:4a:00:c9:fa:77:b9:d0:91:cc:9d:85:0d:c9:ab:cd:9a:
        2b:82:da:6d:c6:d9:21:ee:d3:74:df:72:b2:51:ac:5b:29:b5:
        14:1e:f2:81:a1:e7:6b:6b:78:ad:9d:a5:7e:0a:d9:80:90:81:
        71:64:88:d2:38:03:3b:e0:5a:c0:6a:40:02:95:70:a3:14:3e:
        e2:9c:ca:93:a8:2b:10:c1:08:fc:17:1a:c6:49:22:d8:69:21:
        65:c0:f7:a6:05:01:10:64:91:a3:38:e6:b6:ba:ae:65:51:dd:
        c0:1a:5f:cd:dd:ff:8c:57:aa:d6:e8:01:32:52:01:15:2b:48:
        30:cb:13:f1:75:32:90:6c:66:3f:e5:a5:ed:2b:01:eb:8a:2c:
        09:9f:e4:b5:70:b3:71:c4:e1:44:65:df:03:af:d6:a6:b3:4a:
        97:5f:f3:d8:f4:c6:71:38:c8:cc:05:52:5c:fc:6f:2a:97:cd:
        9f:89:9e:db:20:1d:27:10:7d:97:59:69:0c:99:11:c9:af:4f:
        77:01:23:66:cc:3e:ae:58:c0:14:e5:c9:35:73:c0:ca:96:22:
        14:ac:ca:90:9b:4f:5a:6b:f9:c2:7b:a8:a3:41:e8:1a:41:13:
        e3:07:e4:49:4b:b3:29:eb:a2:52:18:5c:81:18:78:da:6d:c5:
        90:96:f5:b6:8b:8e:73:eb:a6:7e:a1:4f:cc:04:e1:87:63:62:
        83:38:d4:3a:9b:ec:67:c1:74:2a:90:4c:4f:f2:46:65:c7:47:
        af:87:bd:d0:45:02:85:4c:bd:3b:67:c3:06:f2:92:f0:65:f2:
        f8:0d:69:a8:69:11:53:a6:e9:86:96:35:a8:65:84:ae:a5:74:
        90:fc:af:0f:e9:47:05:6f:6b:71:ac:6a:2e:8c:c0:1f:99:88:
        86:7e:ed:a8:84:e1:f2:7d:c4:54:c3:86:cf:4c:bb:de:b2:b3:
        bc:11:3a:6c:77:94:e3:66:bc:4c:3d:38:b8:a1:d5:8b:d4:7d:
        48:b5:ea:e0:86:e8:37:53:19:7f:56:71:5b:fc:41:ef:66:e6:
        a5:6f:9e:a0:14:1b:ae:a3:e2:dd:9e:09:15:3b:17:2d:41:00:
        91:bf:d1:b9:4a:15:b0:14:c4:bb:38:e3:bb:f3:c6:57:3d:b6:
        b9:46:fc:18:43:1f:e0:83:4b:fd:46:67:fa:41:ef:e6:0b:35:
        90:f6:16:0b:6b:5e:9a:f7:aa:f0:ce:ab:69:d4:64:a1:1b:4f:
        9e:77:76:be:00:3d:f5:4e:9c:61:21:50:f4:d0:e5:51:83:86:
        20:a3:64:c3:2a:d9:2d:e3:85:6d:99:bd:2a:ae:58:14:63:e8:
        48:e0:05:c8:35:dd:44:cb:e9:c2:50:0c:0a:37:7b:49
-----BEGIN CERTIFICATE-----
MIIF9DCCAdygAwIBAgICAXYwDQYJKoZIhvcNAQEFBQAwWTELMAkGA1UEBhMCVUcx
DzANBgNVBAcTBlRyb3BpYzEPMA0GA1UEChMGVXRvcGlhMRMwEQYDVQQLEwpSZWxh
eGF0aW9uMRMwEQYDVQQDEwp0aGUgYmlnIENBMB4XDTExMTIxNTIyMjQyOFoXDTI1
MDgyMzIyMjQyOFowWTELMAkGA1UEBhMCVUcxDzANBgNVBAcTBlRyb3BpYzEPMA0G
A1UEChMGVXRvcGlhMRMwEQYDVQQLEwpSZWxheGF0aW9uMRMwEQYDVQQDEwpiaWcg
Y2xpZW50MIGfMA0GCSqGSIb3DQEBAQUAA4GNADCBiQKBgQDI3NOWR77MYpf3k/UI
a1wdnrxOi+BQS0OuL5x3FkCXfbO3/GbWLC4cXurbDmvbW6qD0j+PzV855xcfKTrN
aMHu8w9dZhrsXOABt5Bg35C+k3sdCRgU8UIv1CoHV0K1FJseyzQfbydqiU3l/PDO
cWB1CzTaoXUtaoRfVMLEm5DxQwIDAQABo0owSDARBglghkgBhvhCAQEEBAMCBaAw
MwYJYIZIAYb4QgENBCYWJE9wZW5TU0wgR2VuZXJhdGVkIENsaWVudCBDZXJ0aWZp
Y2F0ZTANBgkqhkiG9w0BAQUFAAOCBAEAc2LY5XOtXw4UmbGrbP/oAzB8sIzYH2bZ
R+8sLmJZQ/cA3KAw8nlR9um/ME4fZQDSBtz51/PpzZRwRVXb1tdWsx38zE7w+X12
GHPhGQEf3j7eUY73HfEc5rr3NmuVxMGLxzA+V1IfuFstHjgHvSDJOwWl5l7EEFY/
N2KL8EJOxquX6FjDMpmtNTJZd4fQ/MQ9UTV9nkPX3sOCayTwdyJN/tGRVIGk7wWb
n7F444ouUgqVdI94fTqYUCrairCa2jEFtFHD6Hgvn7fDMGQDq/Q66JacXnP9nX0Y
qRq2yciZapdZD4ZDIx8kbCPnAvohxh+wpkyx+TSOU/K6hnJbHL+Iol9pBzwU4skt
pHVKpEw/Tc2B+xKlsqSgkpIr7vILkKmIIP1jAD26vIiI7MyzaQDFnaNDqm3sMC3c
lRZlVu55pY8aXyVkH2oy6b4nNb25l3ZDlHFXOklN4lYsFlLsBhRJXOhOSwtg0lbv
0gX+0L3qTjDDbL8uu+kEuzOBtkvlPCELERDnP6gn85oh2xzzsYjYOV5guvwwUUM7
i9+SHN3AxNbg0QZhm/uPfj+HEAcxMSybrJ2PqrlW145CNgiweB0qXj9uvGbYh74M
PL8+rnOTS2MPMYZ3EpBDvCIanVLsy1LngkwYV0UJ8eYg51FyQ+erKIUQmlFTrDlJ
U59KAMn6d7nQkcydhQ3Jq82aK4LabcbZIe7TdN9yslGsWym1FB7ygaHna2t4rZ2l
fgrZgJCBcWSI0jgDO+BawGpAApVwoxQ+4pzKk6grEMEI/Bcaxkki2GkhZcD3pgUB
EGSRozjmtrquZVHdwBpfzd3/jFeq1ugBMlIBFStIMMsT8XUykGxmP+Wl7SsB64os
CZ/ktXCzccThRGXfA6/WprNKl1/z2PTGcTjIzAVSXPxvKpfNn4me2yAdJxB9l1lp
DJkRya9PdwEjZsw+rljAFOXJNXPAypYiFKzKkJtPWmv5wnuoo0HoGkET4wfkSUuz
KeuiUhhcgRh42m3FkJb1touOc+umfqFPzAThh2NigzjUOpvsZ8F0KpBMT/JGZcdH
r4e90EUChUy9O2fDBvKS8GXy+A1pqGkRU6bphpY1qGWErqV0kPyvD+lHBW9rcaxq
LozAH5mIhn7tqITh8n3EVMOGz0y73rKzvBE6bHeU42a8TD04uKHVi9R9SLXq4Ibo
N1MZf1ZxW/xB72bmpW+eoBQbrqPi3Z4JFTsXLUEAkb/RuUoVsBTEuzjju/PGVz22
uUb8GEMf4INL/UZn+kHv5gs1kPYWC2temveq8M6radRkoRtPnnd2vgA99U6cYSFQ
9NDlUYOGIKNkwyrZLeOFbZm9Kq5YFGPoSOAFyDXdRMvpwlAMCjd7SQ==
-----END CERTIFICATE-----
