Certificate:
    Data:
        Version: 3 (0x2)
        Serial Number: 382 (0x17e)
        Signature Algorithm: sha1WithRSAEncryption
        Issuer: C=UG, L=Tropic, O=Utopia, OU=Relaxation, CN=the big CA
        Validity
            Not Before: Dec 15 22:24:33 2011 GMT
            Not After : Dec 14 22:24:33 2011 GMT
        Subject: C=UG, L=Tropic, O=Utopia, OU=Relaxation, CN=big client expired
        Subject Public Key Info:
            Public Key Algorithm: rsaEncryption
            RSA Public Key: (1024 bit)
                Modulus (1024 bit):
                    00:c5:70:c4:a0:dc:22:8d:01:76:73:63:aa:78:9e:
                    27:8f:1d:62:5c:8b:76:9a:9c:e6:58:f2:e6:14:59:
                    f0:65:ce:89:5e:cb:fc:f1:98:9f:2f:6c:3e:94:4a:
                    be:e6:38:ac:28:48:32:4a:24:f6:05:38:99:c0:8d:
                    47:99:4b:f0:84:e0:77:1e:35:47:65:40:a9:60:11:
                    98:b7:42:9c:dc:b2:b6:0a:31:37:38:49:ef:b5:b5:
                    33:8c:b9:38:0f:ea:86:40:69:fb:f0:82:a5:cc:15:
                    12:2e:7d:dd:13:56:a6:dd:41:7c:b1:66:d7:b1:7c:
                    43:6f:e2:90:2f:1c:4a:b6:f5
                Exponent: 65537 (0x10001)
        X509v3 extensions:
            Netscape Cert Type: 
                SSL Client, S/MIME
            Netscape Comment: 
                OpenSSL Generated Client Certificate
    Signature Algorithm: sha1WithRSAEncryption
        18:91:7c:bb:3d:99:b1:d6:37:fc:24:48:1c:d2:3e:1d:a5:15:
        32:1b:1f:e3:78:6e:d3:b6:14:93:eb:7d:4c:0b:da:ac:1e:7e:
        7a:9f:59:5d:6c:b8:df:79:28:af:e4:d9:fd:ce:58:cc:5a:36:
        0f:a3:ac:a4:8a:c5:5a:27:04:19:3d:5f:f0:74:d6:10:4c:62:
        d9:ff:ea:dd:8e:21:ed:6b:06:32:32:ee:11:78:61:dd:3f:65:
        f1:40:bf:5c:64:35:04:60:58:cb:e2:33:f0:9c:78:5a:22:a0:
        79:1e:a6:2e:ef:aa:98:ce:5d:0f:01:73:3d:e1:f8:31:fe:82:
        9b:9c:42:3d:e9:ee:9d:27:c7:8f:b2:b7:b4:e8:f8:92:dd:d2:
        af:d3:97:5a:0c:b7:59:fe:bf:f8:7a:54:82:e8:d8:db:ed:ac:
        e4:12:36:58:d0:d9:55:e2:91:bc:07:15:66:92:f9:3f:e6:58:
        3c:d1:3a:b5:09:02:d3:e3:bc:5e:29:69:60:91:4f:8c:72:ac:
        a7:8a:85:1f:f7:79:7a:53:19:c3:d2:88:1d:a0:e0:12:4e:5f:
        1b:32:39:d9:79:88:da:82:6b:83:f8:60:ed:43:c5:32:cb:ad:
        10:1b:73:e0:9e:d2:46:7a:2e:6c:95:c9:df:c1:d7:61:78:00:
        a8:3c:78:df:f1:d6:57:ff:86:80:59:01:4a:9b:ba:aa:af:90:
        ca:2d:e1:f7:75:66:13:c2:66:b1:d4:c5:cc:bd:07:3a:c0:fc:
        c0:1c:40:3f:71:0f:10:00:66:ba:ff:5e:e5:5e:91:fa:e8:56:
        72:f8:8f:fd:04:be:1a:31:38:ce:a7:83:fe:1e:61:f5:b4:62:
        c5:8e:cb:28:1d:f8:26:02:e7:f6:a4:b3:b5:ef:99:c4:6c:b2:
        8b:6d:77:bc:f0:97:8c:24:66:3a:58:1f:b1:94:12:ec:2d:e5:
        d3:ae:d1:20:69:be:a9:f7:1b:7c:2c:a5:5e:b4:26:68:16:22:
        7a:40:5b:95:c3:39:a3:48:11:2b:50:7e:16:87:b4:4c:45:76:
        90:a3:43:db:17:46:0e:83:16:20:c2:3a:a6:bb:30:5c:53:bd:
        f9:f2:5b:2b:97:11:d8:2f:48:6f:aa:8f:17:e1:1f:49:7c:b9:
        8b:c4:bc:9b:f5:99:27:06:e5:32:99:d3:cc:24:1d:4e:da:b3:
        4b:98:04:51:7d:ab:5d:22:b5:06:4f:96:77:bf:93:bc:fe:17:
        11:70:4f:18:d7:f5:26:d4:d2:b4:2a:22:44:01:61:ac:84:62:
        aa:eb:24:fb:e4:91:5a:db:28:b8:59:8d:92:66:9e:1f:1d:08:
        11:49:ed:13:17:11:b9:f8:6f:eb:8d:3c:ae:4d:ca:af:93:96:
        67:8b:25:f0:f7:0b:8f:8f:46:d5:f7:9a:98:6a:92:fc:c9:9d:
        bf:65:28:03:b3:8d:af:65:f0:ce:cc:6f:fe:37:6d:7e:53:76:
        02:73:fd:86:d6:3b:ca:cb:43:e4:d4:20:c3:81:82:6b:b5:f0:
        03:9d:c9:11:08:aa:64:d1:ec:de:60:f0:77:be:21:7f:de:f4:
        b0:03:d0:80:67:71:64:4e:bd:24:62:60:59:89:44:41:16:95:
        e5:34:48:be:ca:c7:92:88:53:8d:98:e6:d7:91:dd:ba:02:ee:
        4a:6d:b8:72:43:94:14:cc:32:6e:6d:bb:97:b3:9d:63:e4:4d:
        f4:06:71:76:f4:55:6b:49:fb:78:a3:53:84:5f:ea:48:37:b1:
        44:76:c6:77:44:eb:0b:f8:ff:fd:70:ed:ba:54:49:cd:ec:ea:
        90:9d:b5:d1:69:ee:98:fd:43:06:86:4f:43:34:04:5b:f3:ff:
        81:a0:ee:10:8a:bd:bb:e6:45:3e:be:61:e9:9e:2c:f6:a7:38:
        f5:65:2f:23:f1:b2:cb:7b:d8:4e:63:60:b6:a1:68:41:52:34:
        5e:7c:fa:77:60:4d:99:bc:74:4b:0b:54:7f:2d:1f:dc:a2:04:
        6f:35:1f:fd:c7:19:c4:89:c6:f7:51:4c:4f:4f:1d:37:a5:1b:
        1d:7c:18:e6:82:0e:39:3c:18:53:b2:cb:0a:2e:1e:f5:94:bc:
        f6:ae:b4:b5:de:51:a9:f4:37:a5:28:e0:2e:b3:a7:f1:53:3b:
        d8:e9:84:f7:68:82:b0:fe:79:f8:06:4b:9c:8b:34:38:b9:b5:
        71:41:85:ed:3e:87:e2:21:06:3a:8a:ff:27:55:53:0f:8b:cb:
        18:c8:52:23:77:71:28:95:4e:f5:e1:68:66:75:6e:da:c2:8d:
        44:4f:2b:f8:2a:b1:cd:6d:24:e8:d7:9e:d1:28:7a:74:3b:4c:
        fa:31:59:8a:ec:bf:b4:35:65:e6:b4:be:3a:b7:be:4b:8d:a7:
        a1:1c:be:ab:fe:52:28:03:d6:27:3b:67:91:93:02:f5:d4:f8:
        48:40:f5:c8:9d:11:72:0b:c9:3c:70:74:52:85:e9:65:53:0b:
        c8:8e:27:5f:ee:6e:d6:a7:15:ff:1c:63:7c:ea:49:8b:89:37:
        41:73:83:c8:b2:7e:78:cd:74:bd:19:c7:c1:b8:e7:b4:1a:6c:
        b8:ff:35:d3:83:7b:b6:5f:94:d5:a9:72:fe:ad:2d:85:a0:d2:
        2b:9d:67:7d:5e:6c:df:ec:50:99:0f:38:fe:83:31:60:20:84:
        93:35:3e:d7:c3:de:8a:50:1c:25:87:0e:74:05:cc:fc
-----BEGIN CERTIFICATE-----
MIIF/DCCAeSgAwIBAgICAX4wDQYJKoZIhvcNAQEFBQAwWTELMAkGA1UEBhMCVUcx
DzANBgNVBAcTBlRyb3BpYzEPMA0GA1UEChMGVXRvcGlhMRMwEQYDVQQLEwpSZWxh
eGF0aW9uMRMwEQYDVQQDEwp0aGUgYmlnIENBMB4XDTExMTIxNTIyMjQzM1oXDTEx
MTIxNDIyMjQzM1owYTELMAkGA1UEBhMCVUcxDzANBgNVBAcTBlRyb3BpYzEPMA0G
A1UEChMGVXRvcGlhMRMwEQYDVQQLEwpSZWxheGF0aW9uMRswGQYDVQQDExJiaWcg
Y2xpZW50IGV4cGlyZWQwgZ8wDQYJKoZIhvcNAQEBBQADgY0AMIGJAoGBAMVwxKDc
Io0BdnNjqnieJ48dYlyLdpqc5ljy5hRZ8GXOiV7L/PGYny9sPpRKvuY4rChIMkok
9gU4mcCNR5lL8ITgdx41R2VAqWARmLdCnNyytgoxNzhJ77W1M4y5OA/qhkBp+/CC
pcwVEi593RNWpt1BfLFm17F8Q2/ikC8cSrb1AgMBAAGjSjBIMBEGCWCGSAGG+EIB
AQQEAwIFoDAzBglghkgBhvhCAQ0EJhYkT3BlblNTTCBHZW5lcmF0ZWQgQ2xpZW50
IENlcnRpZmljYXRlMA0GCSqGSIb3DQEBBQUAA4IEAQAYkXy7PZmx1jf8JEgc0j4d
pRUyGx/jeG7TthST631MC9qsHn56n1ldbLjfeSiv5Nn9zljMWjYPo6ykisVaJwQZ
PV/wdNYQTGLZ/+rdjiHtawYyMu4ReGHdP2XxQL9cZDUEYFjL4jPwnHhaIqB5HqYu
76qYzl0PAXM94fgx/oKbnEI96e6dJ8ePsre06PiS3dKv05daDLdZ/r/4elSC6Njb
7azkEjZY0NlV4pG8BxVmkvk/5lg80Tq1CQLT47xeKWlgkU+McqynioUf93l6UxnD
0ogdoOASTl8bMjnZeYjagmuD+GDtQ8Uyy60QG3PgntJGei5slcnfwddheACoPHjf
8dZX/4aAWQFKm7qqr5DKLeH3dWYTwmax1MXMvQc6wPzAHEA/cQ8QAGa6/17lXpH6
6FZy+I/9BL4aMTjOp4P+HmH1tGLFjssoHfgmAuf2pLO175nEbLKLbXe88JeMJGY6
WB+xlBLsLeXTrtEgab6p9xt8LKVetCZoFiJ6QFuVwzmjSBErUH4Wh7RMRXaQo0Pb
F0YOgxYgwjqmuzBcU7358lsrlxHYL0hvqo8X4R9JfLmLxLyb9ZknBuUymdPMJB1O
2rNLmARRfatdIrUGT5Z3v5O8/hcRcE8Y1/Um1NK0KiJEAWGshGKq6yT75JFa2yi4
WY2SZp4fHQgRSe0TFxG5+G/rjTyuTcqvk5ZniyXw9wuPj0bV95qYapL8yZ2/ZSgD
s42vZfDOzG/+N21+U3YCc/2G1jvKy0Pk1CDDgYJrtfADnckRCKpk0ezeYPB3viF/
3vSwA9CAZ3FkTr0kYmBZiURBFpXlNEi+yseSiFONmObXkd26Au5KbbhyQ5QUzDJu
bbuXs51j5E30BnF29FVrSft4o1OEX+pIN7FEdsZ3ROsL+P/9cO26VEnN7OqQnbXR
ae6Y/UMGhk9DNARb8/+BoO4Qir275kU+vmHpniz2pzj1ZS8j8bLLe9hOY2C2oWhB
UjRefPp3YE2ZvHRLC1R/LR/cogRvNR/9xxnEicb3UUxPTx03pRsdfBjmgg45PBhT
sssKLh71lLz2rrS13lGp9DelKOAus6fxUzvY6YT3aIKw/nn4BkucizQ4ubVxQYXt
PofiIQY6iv8nVVMPi8sYyFIjd3EolU714WhmdW7awo1ETyv4KrHNbSTo157RKHp0
O0z6MVmK7L+0NWXmtL46t75LjaehHL6r/lIoA9YnO2eRkwL11PhIQPXInRFyC8k8
cHRShellUwvIjidf7m7WpxX/HGN86kmLiTdBc4PIsn54zXS9GcfBuOe0Gmy4/zXT
g3u2X5TVqXL+rS2FoNIrnWd9Xmzf7FCZDzj+gzFgIISTNT7Xw96KUBwlhw50Bcz8
-----END CERTIFICATE-----
