Certificate:
    Data:
        Version: 3 (0x2)
        Serial Number: 375 (0x177)
        Signature Algorithm: md5WithRSAEncryption
        Issuer: C=UG, L=Tropic, O=Utopia, OU=Relaxation, CN=the big CA
        Validity
            Not Before: Dec 15 22:24:30 2011 GMT
            Not After : Aug 23 22:24:30 2025 GMT
        Subject: C=UG, L=Tropic, O=Utopia, OU=Relaxation, CN=big client with md5 hash
        Subject Public Key Info:
            Public Key Algorithm: rsaEncryption
            RSA Public Key: (1024 bit)
                Modulus (1024 bit):
                    00:f3:a4:1f:f7:69:fb:4f:2c:f4:50:f6:b9:67:54:
                    67:db:5f:80:88:45:09:37:0e:14:d5:6b:c5:b7:99:
                    09:92:f2:92:82:15:e8:51:ff:fa:3a:6e:87:51:8f:
                    97:b9:d9:05:0d:8d:26:a8:d4:d6:ce:6a:2a:b5:6f:
                    d4:e7:d9:4a:3e:df:c1:42:aa:19:fb:40:5f:b3:9d:
                    c3:f3:78:c0:7d:de:6e:20:2a:21:f5:80:a8:c4:64:
                    c6:39:b8:bb:3e:75:21:94:d6:7c:8f:e3:ad:33:6e:
                    1e:b1:f6:53:35:de:2a:95:6e:7d:08:77:f9:95:58:
                    5a:79:d9:9d:e3:71:ca:30:31
                Exponent: 65537 (0x10001)
        X509v3 extensions:
            Netscape Cert Type: 
                SSL Client, S/MIME
            Netscape Comment: 
                OpenSSL Generated Client Certificate
    Signature Algorithm: md5WithRSAEncryption
        2d:56:d7:f9:bc:86:d4:fb:79:32:80:26:f0:45:8d:22:1f:b5:
        3d:70:5f:61:83:68:fa:da:86:9c:4c:3d:89:e0:97:32:1a:c2:
        05:48:05:de:23:ea:7f:9d:4e:fd:1b:0e:d9:c7:16:a5:05:0e:
        f7:36:8d:d0:d9:8b:68:d4:6b:d3:2a:e6:8b:31:2c:d9:7d:2a:
        f3:d4:d2:a8:dc:33:2a:21:69:4d:56:67:92:cf:31:00:8a:de:
        f7:df:53:f4:25:c2:ea:87:96:ae:d6:3b:1d:12:42:da:f5:af:
        08:4b:55:53:ed:02:fd:79:37:43:e7:f7:83:f4:4d:c3:1d:a7:
        52:72:81:2f:55:09:98:1f:ac:e4:2e:62:a0:ac:c2:56:f1:65:
        cb:e6:10:cb:47:9d:1b:47:5f:38:71:2f:fb:4f:13:0c:ad:2a:
        dd:bd:2b:a4:bd:41:d0:9e:70:55:7c:5e:da:81:09:ab:4b:33:
        84:bf:ea:e4:f2:09:ec:30:e1:d1:11:21:cb:4e:7a:04:68:0a:
        9d:b0:aa:cd:57:ec:59:88:6d:7b:e8:6d:68:59:11:57:3a:09:
        5f:90:c7:98:88:2f:63:1f:6c:04:5d:c8:40:cc:6c:fb:85:fe:
        f3:cc:f8:e0:b8:8e:a5:11:5b:6a:6b:46:55:c0:d4:07:44:f8:
        c5:aa:a5:d6:98:d9:79:e4:31:0b:bd:63:21:93:f4:aa:e3:40:
        95:14:77:6e:1e:c1:63:d7:38:05:b3:4a:98:01:7f:5c:ae:2a:
        09:f0:e6:c3:3d:3e:17:84:2f:e9:5e:37:e0:b6:bf:9d:1a:74:
        32:cf:cb:6c:93:ac:7c:de:21:f3:cd:80:4e:23:26:a4:d7:da:
        d2:14:99:b0:7e:53:b6:1d:3a:dd:07:d8:76:fc:13:f3:7b:f1:
        09:2a:26:6a:b3:cd:f9:a4:b0:c4:b4:81:77:e3:1e:c3:a8:c9:
        0b:e5:40:36:b2:99:d0:85:a2:e8:49:f4:db:08:d8:4e:cb:18:
        66:3a:9c:07:78:35:06:90:c7:e3:0d:4a:00:d6:f0:dc:75:e5:
        55:9c:b7:45:9c:c6:78:04:e1:d2:89:5e:2a:97:bc:f5:76:8b:
        5b:7e:06:2a:82:a7:88:52:3a:13:84:f4:dc:a5:74:a8:63:17:
        82:3a:14:c4:cd:3e:bc:a5:cf:84:b1:5e:16:aa:08:bf:43:39:
        1f:c9:1a:9a:8a:71:c2:05:ea:5c:3b:07:8f:28:c4:f4:41:ab:
        d1:c3:82:dc:e0:40:2d:46:32:1d:b7:46:9d:4b:cb:4e:29:c9:
        67:09:ed:1e:86:7e:ad:ee:af:5d:4d:06:86:2f:f7:90:57:04:
        52:d4:b4:c7:7b:3d:60:f5:02:c2:4c:96:85:b2:43:03:25:8d:
        3c:8b:be:5d:33:0e:a1:aa:a4:fe:e8:1e:33:54:06:e0:b4:e3:
        d5:9a:f0:75:3a:f9:b9:e1:44:34:fa:d7:33:6e:27:4b:2f:7d:
        ac:ab:26:ef:60:23:b1:60:89:66:55:87:14:68:12:31:1d:fb:
        cc:45:fe:24:f0:e5:c3:50:8e:2d:28:0c:a8:14:ce:fd:da:63:
        8e:1b:1e:19:9d:84:63:c5:55:eb:0b:90:ed:d7:15:44:e4:7a:
        4a:2f:0f:3e:94:e9:c9:b5:56:52:69:29:0b:b4:f6:eb:3f:eb:
        2c:df:f5:89:80:f2:39:e3:19:12:c5:5a:82:a5:de:10:00:73:
        5f:d3:35:d4:9d:29:11:67:c8:f3:d4:e6:4f:fb:5b:55:df:52:
        f9:67:fa:1b:fd:23:a3:08:26:f3:07:6a:36:da:cb:40:59:1d:
        30:01:a4:76:8f:f1:a5:f4:30:2c:6d:21:a5:bb:97:85:1f:53:
        71:c8:1f:69:39:b2:ef:1d:7c:9d:5a:54:5a:aa:f3:ac:75:b1:
        46:3c:04:ea:23:99:03:31:28:c8:0d:17:18:2b:50:e8:70:3f:
        65:0a:b8:7d:03:54:12:95:1b:d8:e5:96:cd:1c:fe:a8:32:93:
        e3:e8:37:a8:e6:60:b1:5a:d9:96:f4:d3:5e:24:77:9d:c9:ab:
        17:da:97:d9:0f:d6:92:6d:a5:b8:83:2b:6c:84:4b:cb:85:0f:
        56:9c:d6:71:d1:5a:2d:10:ad:c0:0f:bd:12:87:03:3f:72:af:
        6b:87:a8:4c:d6:40:47:07:79:d7:42:77:c0:82:b5:89:40:7d:
        ae:2d:95:cd:78:00:fa:d0:3a:32:6b:3f:20:b7:ab:b0:f2:23:
        c6:46:02:09:96:3b:13:39:c1:45:21:f9:fe:e0:7e:5a:4b:75:
        67:83:44:59:a9:db:14:d5:d8:e2:f5:08:87:1c:a6:27:d9:47:
        be:ef:33:d8:4d:78:19:fc:45:0b:21:7b:7f:18:05:d3:7c:61:
        a9:08:67:3f:01:be:08:81:96:56:b4:f2:f5:78:3f:4e:bf:85:
        7c:69:70:6b:10:e1:a6:77:e3:36:8c:a1:33:72:6a:bd:f9:37:
        18:44:36:6d:47:09:ce:3e:6a:44:d0:1c:ea:e6:89:e4:48:93:
        36:4a:97:f6:74:38:66:e7:f0:07:2f:f7:80:0d:92:98:82:df:
        45:33:19:1d:cb:14:07:35:b8:43:9d:e1:68:35:46:28:b4:0c:
        3a:a2:ed:d8:dd:d0:59:46:2f:cd:f5:3c:c0:f1:12:09:9d:ba:
        04:a7:50:b7:68:7b:84:02:92:d6:97:ba:b3:19:42:ed
-----BEGIN CERTIFICATE-----
MIIGAjCCAeqgAwIBAgICAXcwDQYJKoZIhvcNAQEEBQAwWTELMAkGA1UEBhMCVUcx
DzANBgNVBAcTBlRyb3BpYzEPMA0GA1UEChMGVXRvcGlhMRMwEQYDVQQLEwpSZWxh
eGF0aW9uMRMwEQYDVQQDEwp0aGUgYmlnIENBMB4XDTExMTIxNTIyMjQzMFoXDTI1
MDgyMzIyMjQzMFowZzELMAkGA1UEBhMCVUcxDzANBgNVBAcTBlRyb3BpYzEPMA0G
A1UEChMGVXRvcGlhMRMwEQYDVQQLEwpSZWxheGF0aW9uMSEwHwYDVQQDExhiaWcg
Y2xpZW50IHdpdGggbWQ1IGhhc2gwgZ8wDQYJKoZIhvcNAQEBBQADgY0AMIGJAoGB
APOkH/dp+08s9FD2uWdUZ9tfgIhFCTcOFNVrxbeZCZLykoIV6FH/+jpuh1GPl7nZ
BQ2NJqjU1s5qKrVv1OfZSj7fwUKqGftAX7Odw/N4wH3ebiAqIfWAqMRkxjm4uz51
IZTWfI/jrTNuHrH2UzXeKpVufQh3+ZVYWnnZneNxyjAxAgMBAAGjSjBIMBEGCWCG
SAGG+EIBAQQEAwIFoDAzBglghkgBhvhCAQ0EJhYkT3BlblNTTCBHZW5lcmF0ZWQg
Q2xpZW50IENlcnRpZmljYXRlMA0GCSqGSIb3DQEBBAUAA4IEAQAtVtf5vIbU+3ky
gCbwRY0iH7U9cF9hg2j62oacTD2J4JcyGsIFSAXeI+p/nU79Gw7ZxxalBQ73No3Q
2Yto1GvTKuaLMSzZfSrz1NKo3DMqIWlNVmeSzzEAit7331P0JcLqh5au1jsdEkLa
9a8IS1VT7QL9eTdD5/eD9E3DHadScoEvVQmYH6zkLmKgrMJW8WXL5hDLR50bR184
cS/7TxMMrSrdvSukvUHQnnBVfF7agQmrSzOEv+rk8gnsMOHRESHLTnoEaAqdsKrN
V+xZiG176G1oWRFXOglfkMeYiC9jH2wEXchAzGz7hf7zzPjguI6lEVtqa0ZVwNQH
RPjFqqXWmNl55DELvWMhk/Sq40CVFHduHsFj1zgFs0qYAX9crioJ8ObDPT4XhC/p
Xjfgtr+dGnQyz8tsk6x83iHzzYBOIyak19rSFJmwflO2HTrdB9h2/BPze/EJKiZq
s835pLDEtIF34x7DqMkL5UA2spnQhaLoSfTbCNhOyxhmOpwHeDUGkMfjDUoA1vDc
deVVnLdFnMZ4BOHSiV4ql7z1dotbfgYqgqeIUjoThPTcpXSoYxeCOhTEzT68pc+E
sV4Wqgi/QzkfyRqainHCBepcOwePKMT0QavRw4Lc4EAtRjIdt0adS8tOKclnCe0e
hn6t7q9dTQaGL/eQVwRS1LTHez1g9QLCTJaFskMDJY08i75dMw6hqqT+6B4zVAbg
tOPVmvB1Ovm54UQ0+tczbidLL32sqybvYCOxYIlmVYcUaBIxHfvMRf4k8OXDUI4t
KAyoFM792mOOGx4ZnYRjxVXrC5Dt1xVE5HpKLw8+lOnJtVZSaSkLtPbrP+ss3/WJ
gPI54xkSxVqCpd4QAHNf0zXUnSkRZ8jz1OZP+1tV31L5Z/ob/SOjCCbzB2o22stA
WR0wAaR2j/Gl9DAsbSGlu5eFH1NxyB9pObLvHXydWlRaqvOsdbFGPATqI5kDMSjI
DRcYK1DocD9lCrh9A1QSlRvY5ZbNHP6oMpPj6Deo5mCxWtmW9NNeJHedyasX2pfZ
D9aSbaW4gytshEvLhQ9WnNZx0VotEK3AD70ShwM/cq9rh6hM1kBHB3nXQnfAgrWJ
QH2uLZXNeAD60Doyaz8gt6uw8iPGRgIJljsTOcFFIfn+4H5aS3Vng0RZqdsU1dji
9QiHHKYn2Ue+7zPYTXgZ/EULIXt/GAXTfGGpCGc/Ab4IgZZWtPL1eD9Ov4V8aXBr
EOGmd+M2jKEzcmq9+TcYRDZtRwnOPmpE0Bzq5onkSJM2Spf2dDhm5/AHL/eADZKY
gt9FMxkdyxQHNbhDneFoNUYotAw6ou3Y3dBZRi/N9TzA8RIJnboEp1C3aHuEApLW
l7qzGULt
-----END CERTIFICATE-----
