Certificate:
    Data:
        Version: 3 (0x2)
        Serial Number: 378 (0x17a)
        Signature Algorithm: sha384WithRSAEncryption
        Issuer: C=UG, L=Tropic, O=Utopia, OU=Relaxation, CN=the big CA
        Validity
            Not Before: Dec 15 22:24:31 2011 GMT
            Not After : Aug 23 22:24:31 2025 GMT
        Subject: C=UG, L=Tropic, O=Utopia, OU=Relaxation, CN=big client with sha384 hash
        Subject Public Key Info:
            Public Key Algorithm: rsaEncryption
            RSA Public Key: (1024 bit)
                Modulus (1024 bit):
                    00:bc:44:e8:65:62:f2:25:3a:9b:fa:7d:10:b5:93:
                    aa:b2:0c:fa:aa:49:ee:25:51:09:ad:f9:be:de:d0:
                    31:7b:ff:29:a9:12:75:ae:b4:54:e2:97:71:e0:d4:
                    41:8a:ca:f6:9b:d5:03:6c:d7:3d:8c:42:27:fa:7e:
                    87:ba:d6:e8:89:e3:8a:ad:21:e2:e0:36:b3:9d:2d:
                    d2:5d:09:04:b0:8e:7a:1d:ea:c7:44:9f:f3:48:3b:
                    80:0d:fe:98:6b:57:fa:b6:a0:e0:51:dc:c0:ee:3d:
                    2f:47:7c:11:d0:89:49:4b:97:1c:af:a8:06:73:f0:
                    b2:72:ee:cd:16:d5:b5:c6:f3
                Exponent: 65537 (0x10001)
        X509v3 extensions:
            Netscape Cert Type: 
                SSL Client, S/MIME
            Netscape Comment: 
                OpenSSL Generated Client Certificate
    Signature Algorithm: sha384WithRSAEncryption
        ca:06:3f:97:cb:ba:4a:76:91:4c:2b:69:12:da:e0:f9:44:72:
        9a:e6:0a:42:e9:4d:47:13:16:a7:07:38:35:91:32:9d:81:df:
        c2:f7:6a:2c:2c:f3:0c:e6:bb:4b:d3:02:dd:48:a2:ad:b1:e5:
        be:b3:33:70:a6:36:c5:13:9e:ce:6f:71:cb:af:f4:80:3d:1a:
        12:61:02:09:54:32:6a:55:fb:b5:44:31:e8:b1:d1:79:79:77:
        ec:87:97:96:cb:52:1b:f6:33:53:d7:1f:4a:a0:b8:89:e6:25:
        62:0a:d1:74:8c:02:63:4c:93:b5:84:7a:86:99:29:d5:a2:99:
        19:0f:80:4b:0d:10:a7:3c:27:9e:df:25:e2:ff:f1:8b:46:1e:
        20:2f:4e:46:32:38:55:60:84:df:67:c3:8d:7a:6f:61:9e:30:
        8e:84:a3:a5:83:e3:a2:7b:93:84:8a:7e:b8:13:4a:04:9a:1e:
        19:8c:a2:0a:fd:4e:68:62:05:f0:ff:c6:0f:e7:d4:94:4a:a0:
        5c:8c:7e:23:72:12:89:29:ce:84:5f:5c:8f:5c:5d:c4:7b:95:
        39:40:b6:67:0c:25:78:a9:ea:73:3e:08:93:da:93:ff:0e:82:
        6a:67:72:1e:9c:0e:69:f6:a6:c6:66:17:95:3d:4d:05:a4:ec:
        5e:f0:8d:19:22:f7:ff:60:e4:d5:a7:c5:85:18:9c:fa:5d:eb:
        9f:49:d5:93:0f:2e:01:7d:9f:47:8a:a0:f0:9b:ae:cc:0d:13:
        41:ca:a8:e2:28:72:87:2b:eb:f5:ed:f3:4c:f1:8f:b6:ea:90:
        09:31:11:64:7c:0c:7c:77:05:f7:95:41:30:9d:2d:1f:b5:ac:
        32:2e:74:0f:0f:b1:ab:14:16:d4:3f:d6:d3:60:5e:25:d7:1c:
        ba:d6:17:4e:d5:44:dd:be:34:87:8f:18:34:2e:ad:e5:46:d3:
        34:2b:7c:56:3c:fd:89:84:16:5b:37:a5:96:14:5a:35:ea:10:
        81:d1:38:dd:07:87:70:86:33:9e:e6:bd:58:78:c3:de:2a:8c:
        bb:f7:1b:b2:6f:d0:2c:0d:da:47:fe:11:60:f2:3b:93:53:8b:
        d4:9d:c7:9e:d9:44:3f:6e:50:32:19:d3:56:b6:cc:d5:78:fb:
        7e:ae:cf:23:2d:5f:0a:7c:52:5e:42:a5:af:7d:19:19:78:17:
        ea:22:71:e7:cd:7f:61:4b:9a:00:1a:88:b1:f5:b2:1b:52:d6:
        55:71:76:7a:93:5e:71:18:6f:46:5f:5a:10:fa:18:08:b3:5b:
        33:da:e5:2c:b7:ab:04:81:a6:96:fb:3f:87:6d:9f:c8:15:79:
        03:d4:ab:91:c8:17:8f:13:26:4f:06:e3:d1:96:66:49:84:ef:
        bb:bf:10:07:84:07:c0:37:a9:6c:95:11:c7:06:a2:09:46:77:
        d6:1f:f8:ff:e9:aa:cd:23:e8:9c:ce:d6:b5:f0:b6:34:37:4a:
        87:b5:2f:68:e1:c7:ac:9a:3f:7f:5a:3c:91:1a:33:db:64:92:
        2b:90:d8:5f:d5:3b:31:3a:3f:ac:ea:43:4e:56:59:a0:68:27:
        3c:ee:fa:69:ed:a2:32:d5:55:ae:b2:81:d1:ee:32:41:4b:7b:
        18:32:07:b9:a6:53:42:0f:93:77:f0:b8:33:4f:a4:a3:28:1a:
        03:94:c0:9f:32:bb:85:8e:b7:05:2b:5c:21:4b:f5:cc:7a:20:
        55:ff:20:76:36:8f:21:79:f7:c4:68:8f:6f:20:1a:3f:bb:0b:
        af:dd:b0:8d:2a:fa:0e:22:69:1f:c1:87:9d:d6:53:c5:49:8d:
        26:6e:0f:82:c6:aa:e4:fa:ec:c4:a7:c7:8e:92:09:4d:1b:ab:
        3d:52:30:15:3d:a6:15:c3:15:37:28:fc:a4:39:75:45:4a:b0:
        07:7b:bd:b2:6f:bf:d7:0d:06:3d:dc:1f:1d:6a:3b:2e:b6:e4:
        13:d1:7c:3b:5d:96:66:eb:99:47:5f:30:20:f1:1d:8c:f1:6f:
        e3:ba:a2:df:62:16:ef:77:47:37:8d:a9:c1:27:cf:7b:36:d0:
        4b:25:da:da:f9:ff:1e:e1:df:a7:2c:ac:8d:f5:31:c6:a4:f0:
        e6:30:63:be:79:ed:d0:16:79:cb:2b:5a:e0:63:f5:bd:02:08:
        2d:76:10:1c:4f:72:ca:22:98:9c:f8:fa:bf:84:1d:88:45:33:
        6b:81:9c:8b:6c:91:8c:ad:fd:58:09:1e:a6:ff:36:28:c5:75:
        25:88:ea:db:c4:42:dc:83:17:c7:07:59:d9:bc:5c:95:56:24:
        71:f5:91:92:56:14:7d:e0:59:a5:92:44:aa:fc:32:2b:e1:2c:
        9f:14:28:5a:44:4c:f4:6c:19:2e:7e:8b:88:f2:8f:d8:94:02:
        21:61:0d:9a:37:c7:9b:0e:99:cd:94:8c:b5:ca:6c:dc:ca:bc:
        c9:ea:95:13:5b:fa:e7:74:21:77:86:c2:00:6f:99:9e:06:49:
        bd:74:08:4d:31:7a:bf:38:1a:ad:e4:0f:7d:6e:99:c1:e8:a4:
        03:99:bc:0d:c1:98:58:0e:ed:ac:31:5b:81:f8:50:31:2c:a2:
        11:6f:a7:73:81:6a:46:4b:7a:a2:eb:cb:50:75:02:53:98:12:
        a5:76:77:ec:92:4b:a4:8f:d7:49:8d:9d:6e:a5:82:6a:0f:5f:
        12:ba:27:cc:0f:5e:fd:eb:03:87:88:53:be:09:97:51
-----BEGIN CERTIFICATE-----
MIIGBTCCAe2gAwIBAgICAXowDQYJKoZIhvcNAQEMBQAwWTELMAkGA1UEBhMCVUcx
DzANBgNVBAcTBlRyb3BpYzEPMA0GA1UEChMGVXRvcGlhMRMwEQYDVQQLEwpSZWxh
eGF0aW9uMRMwEQYDVQQDEwp0aGUgYmlnIENBMB4XDTExMTIxNTIyMjQzMVoXDTI1
MDgyMzIyMjQzMVowajELMAkGA1UEBhMCVUcxDzANBgNVBAcTBlRyb3BpYzEPMA0G
A1UEChMGVXRvcGlhMRMwEQYDVQQLEwpSZWxheGF0aW9uMSQwIgYDVQQDExtiaWcg
Y2xpZW50IHdpdGggc2hhMzg0IGhhc2gwgZ8wDQYJKoZIhvcNAQEBBQADgY0AMIGJ
AoGBALxE6GVi8iU6m/p9ELWTqrIM+qpJ7iVRCa35vt7QMXv/KakSda60VOKXceDU
QYrK9pvVA2zXPYxCJ/p+h7rW6Injiq0h4uA2s50t0l0JBLCOeh3qx0Sf80g7gA3+
mGtX+rag4FHcwO49L0d8EdCJSUuXHK+oBnPwsnLuzRbVtcbzAgMBAAGjSjBIMBEG
CWCGSAGG+EIBAQQEAwIFoDAzBglghkgBhvhCAQ0EJhYkT3BlblNTTCBHZW5lcmF0
ZWQgQ2xpZW50IENlcnRpZmljYXRlMA0GCSqGSIb3DQEBDAUAA4IEAQDKBj+Xy7pK
dpFMK2kS2uD5RHKa5gpC6U1HExanBzg1kTKdgd/C92osLPMM5rtL0wLdSKKtseW+
szNwpjbFE57Ob3HLr/SAPRoSYQIJVDJqVfu1RDHosdF5eXfsh5eWy1Ib9jNT1x9K
oLiJ5iViCtF0jAJjTJO1hHqGmSnVopkZD4BLDRCnPCee3yXi//GLRh4gL05GMjhV
YITfZ8ONem9hnjCOhKOlg+Oie5OEin64E0oEmh4ZjKIK/U5oYgXw/8YP59SUSqBc
jH4jchKJKc6EX1yPXF3Ee5U5QLZnDCV4qepzPgiT2pP/DoJqZ3IenA5p9qbGZheV
PU0FpOxe8I0ZIvf/YOTVp8WFGJz6XeufSdWTDy4BfZ9HiqDwm67MDRNByqjiKHKH
K+v17fNM8Y+26pAJMRFkfAx8dwX3lUEwnS0ftawyLnQPD7GrFBbUP9bTYF4l1xy6
1hdO1UTdvjSHjxg0Lq3lRtM0K3xWPP2JhBZbN6WWFFo16hCB0TjdB4dwhjOe5r1Y
eMPeKoy79xuyb9AsDdpH/hFg8juTU4vUncee2UQ/blAyGdNWtszVePt+rs8jLV8K
fFJeQqWvfRkZeBfqInHnzX9hS5oAGoix9bIbUtZVcXZ6k15xGG9GX1oQ+hgIs1sz
2uUst6sEgaaW+z+HbZ/IFXkD1KuRyBePEyZPBuPRlmZJhO+7vxAHhAfAN6lslRHH
BqIJRnfWH/j/6arNI+iczta18LY0N0qHtS9o4cesmj9/WjyRGjPbZJIrkNhf1Tsx
Oj+s6kNOVlmgaCc87vpp7aIy1VWusoHR7jJBS3sYMge5plNCD5N38LgzT6SjKBoD
lMCfMruFjrcFK1whS/XMeiBV/yB2No8heffEaI9vIBo/uwuv3bCNKvoOImkfwYed
1lPFSY0mbg+Cxqrk+uzEp8eOkglNG6s9UjAVPaYVwxU3KPykOXVFSrAHe72yb7/X
DQY93B8dajsutuQT0Xw7XZZm65lHXzAg8R2M8W/juqLfYhbvd0c3janBJ897NtBL
Jdra+f8e4d+nLKyN9THGpPDmMGO+ee3QFnnLK1rgY/W9AggtdhAcT3LKIpic+Pq/
hB2IRTNrgZyLbJGMrf1YCR6m/zYoxXUliOrbxELcgxfHB1nZvFyVViRx9ZGSVhR9
4FmlkkSq/DIr4SyfFChaREz0bBkufouI8o/YlAIhYQ2aN8ebDpnNlIy1ymzcyrzJ
6pUTW/rndCF3hsIAb5meBkm9dAhNMXq/OBqt5A99bpnB6KQDmbwNwZhYDu2sMVuB
+FAxLKIRb6dzgWpGS3qi68tQdQJTmBKldnfskkukj9dJjZ1upYJqD18SuifMD179
6wOHiFO+CZdR
-----END CERTIFICATE-----
