Certificate:
    Data:
        Version: 3 (0x2)
        Serial Number: 377 (0x179)
        Signature Algorithm: sha256WithRSAEncryption
        Issuer: C=UG, L=Tropic, O=Utopia, OU=Relaxation, CN=the fake CA
        Validity
            Not Before: Dec 15 22:24:21 2011 GMT
            Not After : Aug 23 22:24:21 2025 GMT
        Subject: C=UG, L=Tropic, O=Utopia, OU=Relaxation, CN=fake client with sha256 hash
        Subject Public Key Info:
            Public Key Algorithm: rsaEncryption
            RSA Public Key: (1024 bit)
                Modulus (1024 bit):
                    00:a5:4f:79:4e:bf:c8:18:95:a0:7e:33:7d:cc:ea:
                    32:48:f1:ec:e4:26:63:73:c3:56:8f:16:78:fd:5e:
                    cf:ef:f7:23:35:4d:b9:1f:6e:1a:2c:98:6a:28:b6:
                    75:df:ec:8f:8c:93:1e:82:c9:bd:d1:01:65:48:62:
                    d2:9d:c0:af:eb:55:fe:40:14:49:40:09:ca:9a:06:
                    bc:ca:c1:e3:51:02:cd:fc:0a:fd:97:75:24:20:c5:
                    a0:7a:d8:e7:16:b2:5a:5c:aa:3a:ef:d3:14:b4:74:
                    43:20:87:14:40:4c:5b:0f:7f:f3:89:80:dd:cc:e7:
                    ac:3c:fa:d2:54:0f:7e:4f:3d
                Exponent: 65537 (0x10001)
        X509v3 extensions:
            Netscape Cert Type: 
                SSL Client, S/MIME
            Netscape Comment: 
                OpenSSL Generated Client Certificate
    Signature Algorithm: sha256WithRSAEncryption
        0b:cc:cf:f5:dc:ae:81:b7:bb:14:89:90:92:8f:52:f0:40:7a:
        1b:4f:82:00:2e:cd:d6:f1:12:6b:16:82:d1:24:3f:0b:0d:ed:
        94:59:55:45:e4:61:07:34:3d:01:35:78:32:a9:6a:e7:d4:ac:
        8e:30:b6:1e:4e:a9:62:4c:31:24:cc:a0:5c:fb:b5:2d:30:4b:
        ec:af:99:c8:6e:4e:ef:61:6f:4f:89:01:e4:5f:a3:35:ae:39:
        dd:36:b7:fe:05:53:cf:75:42:47:58:4a:67:27:4f:0d:cb:1d:
        b2:e2:17:31:f0:b7:be:ae:15:33:cc:12:78:8f:b3:3d:de:e4:
        4b:f2
-----BEGIN CERTIFICATE-----
MIIChjCCAe+gAwIBAgICAXkwDQYJKoZIhvcNAQELBQAwWjELMAkGA1UEBhMCVUcx
DzANBgNVBAcTBlRyb3BpYzEPMA0GA1UEChMGVXRvcGlhMRMwEQYDVQQLEwpSZWxh
eGF0aW9uMRQwEgYDVQQDEwt0aGUgZmFrZSBDQTAeFw0xMTEyMTUyMjI0MjFaFw0y
NTA4MjMyMjI0MjFaMGsxCzAJBgNVBAYTAlVHMQ8wDQYDVQQHEwZUcm9waWMxDzAN
BgNVBAoTBlV0b3BpYTETMBEGA1UECxMKUmVsYXhhdGlvbjElMCMGA1UEAxMcZmFr
ZSBjbGllbnQgd2l0aCBzaGEyNTYgaGFzaDCBnzANBgkqhkiG9w0BAQEFAAOBjQAw
gYkCgYEApU95Tr/IGJWgfjN9zOoySPHs5CZjc8NWjxZ4/V7P7/cjNU25H24aLJhq
KLZ13+yPjJMegsm90QFlSGLSncCv61X+QBRJQAnKmga8ysHjUQLN/Ar9l3UkIMWg
etjnFrJaXKo679MUtHRDIIcUQExbD3/ziYDdzOesPPrSVA9+Tz0CAwEAAaNKMEgw
EQYJYIZIAYb4QgEBBAQDAgWgMDMGCWCGSAGG+EIBDQQmFiRPcGVuU1NMIEdlbmVy
YXRlZCBDbGllbnQgQ2VydGlmaWNhdGUwDQYJKoZIhvcNAQELBQADgYEAC8zP9dyu
gbe7FImQko9S8EB6G0+CAC7N1vESaxaC0SQ/Cw3tlFlVReRhBzQ9ATV4Mqlq59Ss
jjC2Hk6pYkwxJMygXPu1LTBL7K+ZyG5O72FvT4kB5F+jNa453Ta3/gVTz3VCR1hK
ZydPDcsdsuIXMfC3vq4VM8wSeI+zPd7kS/I=
-----END CERTIFICATE-----
