Certificate:
    Data:
        Version: 3 (0x2)
        Serial Number: 380 (0x17c)
        Signature Algorithm: sha1WithRSAEncryption
        Issuer: C=UG, L=Tropic, O=Utopia, OU=Relaxation, CN=the fake CA
        Validity
            Not Before: Dec 15 22:24:22 2011 GMT
            Not After : Aug 23 22:24:22 2025 GMT
        Subject: C=UG, L=Tropic, O=Utopia, OU=Chilling, CN=fake client with bad DN
        Subject Public Key Info:
            Public Key Algorithm: rsaEncryption
            RSA Public Key: (1024 bit)
                Modulus (1024 bit):
                    00:b9:11:43:36:5b:16:21:4e:7a:0f:47:3e:0d:a3:
                    d2:32:b1:a9:d6:f6:1a:c2:76:da:80:90:a5:0b:01:
                    59:a2:29:d0:b8:b8:eb:8f:89:8b:49:7a:05:d7:1a:
                    d7:f9:60:49:2b:4c:70:e3:da:78:2c:d0:57:b4:7c:
                    92:fb:5a:dd:b9:3e:f3:c3:69:06:3e:ba:e5:51:e5:
                    9c:a7:a0:7f:a9:62:da:dd:99:e1:92:d9:4a:f6:59:
                    0c:08:10:21:e4:75:b6:e6:02:2f:54:e1:33:7d:fc:
                    51:da:83:9e:20:e3:85:21:32:2f:2b:fb:10:ac:37:
                    dd:47:f3:8e:1e:ab:45:d1:a1
                Exponent: 65537 (0x10001)
        X509v3 extensions:
            Netscape Cert Type: 
                SSL Client, S/MIME
            Netscape Comment: 
                OpenSSL Generated Client Certificate
    Signature Algorithm: sha1WithRSAEncryption
        5f:0a:42:f7:fe:5f:2d:80:b3:e5:4e:1d:32:b0:b5:2f:80:05:
        67:bc:29:c9:e9:48:69:14:b2:b5:b7:0a:7c:1d:e8:7f:47:70:
        22:f4:1c:46:50:47:c8:39:59:60:b7:7e:e8:08:49:10:70:f6:
        21:16:92:97:6f:51:ee:52:fc:44:07:50:75:05:81:fe:66:e1:
        37:8a:b8:c8:34:07:7e:af:39:3e:59:1d:01:63:df:4b:d3:b9:
        9e:32:52:35:91:cb:86:36:91:fd:98:c8:ac:52:5c:5e:7c:64:
        3b:4c:c7:45:e3:33:b5:dc:bc:d1:c9:ba:a6:cd:89:23:8a:92:
        56:b5
-----BEGIN CERTIFICATE-----
MIICfzCCAeigAwIBAgICAXwwDQYJKoZIhvcNAQEFBQAwWjELMAkGA1UEBhMCVUcx
DzANBgNVBAcTBlRyb3BpYzEPMA0GA1UEChMGVXRvcGlhMRMwEQYDVQQLEwpSZWxh
eGF0aW9uMRQwEgYDVQQDEwt0aGUgZmFrZSBDQTAeFw0xMTEyMTUyMjI0MjJaFw0y
NTA4MjMyMjI0MjJaMGQxCzAJBgNVBAYTAlVHMQ8wDQYDVQQHEwZUcm9waWMxDzAN
BgNVBAoTBlV0b3BpYTERMA8GA1UECxMIQ2hpbGxpbmcxIDAeBgNVBAMTF2Zha2Ug
Y2xpZW50IHdpdGggYmFkIEROMIGfMA0GCSqGSIb3DQEBAQUAA4GNADCBiQKBgQC5
EUM2WxYhTnoPRz4No9IysanW9hrCdtqAkKULAVmiKdC4uOuPiYtJegXXGtf5YEkr
THDj2ngs0Fe0fJL7Wt25PvPDaQY+uuVR5ZynoH+pYtrdmeGS2Ur2WQwIECHkdbbm
Ai9U4TN9/FHag54g44UhMi8r+xCsN91H844eq0XRoQIDAQABo0owSDARBglghkgB
hvhCAQEEBAMCBaAwMwYJYIZIAYb4QgENBCYWJE9wZW5TU0wgR2VuZXJhdGVkIENs
aWVudCBDZXJ0aWZpY2F0ZTANBgkqhkiG9w0BAQUFAAOBgQBfCkL3/l8tgLPlTh0y
sLUvgAVnvCnJ6UhpFLK1twp8Heh/R3Ai9BxGUEfIOVlgt37oCEkQcPYhFpKXb1Hu
UvxEB1B1BYH+ZuE3irjINAd+rzk+WR0BY99L07meMlI1kcuGNpH9mMisUlxefGQ7
TMdF4zO13LzRybqmzYkjipJWtQ==
-----END CERTIFICATE-----
