Certificate:
    Data:
        Version: 3 (0x2)
        Serial Number: 379 (0x17b)
        Signature Algorithm: sha512WithRSAEncryption
        Issuer: C=UG, L=Tropic, O=Utopia, OU=Relaxation, CN=the fake CA
        Validity
            Not Before: Dec 15 22:24:22 2011 GMT
            Not After : Aug 23 22:24:22 2025 GMT
        Subject: C=UG, L=Tropic, O=Utopia, OU=Relaxation, CN=fake client with sha512 hash
        Subject Public Key Info:
            Public Key Algorithm: rsaEncryption
            RSA Public Key: (1024 bit)
                Modulus (1024 bit):
                    00:cd:4f:43:16:a7:30:61:85:9b:bd:6d:17:01:9e:
                    fa:b9:c8:3f:00:d3:f7:49:00:1b:34:bb:a5:e2:21:
                    77:7a:5d:cc:c4:c0:7e:a0:ed:09:0d:4d:82:6d:15:
                    ae:d2:6e:2b:cc:28:ba:6d:76:3b:f3:88:50:4f:89:
                    20:d6:58:83:8b:9d:3d:be:b4:00:f3:17:a0:61:12:
                    a1:8b:da:b3:93:ea:b6:e5:db:05:18:02:59:81:c4:
                    f8:1b:a2:07:5e:b8:f1:48:16:bd:81:c7:9f:a9:34:
                    e1:d3:43:2c:bf:50:ed:f5:ab:56:b4:c8:9c:5f:1f:
                    b6:46:d5:c1:78:4e:41:4a:15
                Exponent: 65537 (0x10001)
        X509v3 extensions:
            Netscape Cert Type: 
                SSL Client, S/MIME
            Netscape Comment: 
                OpenSSL Generated Client Certificate
    Signature Algorithm: sha512WithRSAEncryption
        be:dd:b7:b4:38:72:17:0b:56:a9:48:da:63:a3:68:4c:47:0a:
        d2:0f:7d:b4:6a:4e:06:dc:d2:15:28:ef:10:6c:39:5b:99:99:
        c0:43:91:f9:38:1e:2f:c6:37:38:28:d0:17:8b:3d:80:03:df:
        ce:af:ea:0a:ad:49:20:6b:df:f4:78:f3:c1:2e:44:b6:99:a9:
        55:7d:5a:41:29:97:61:02:3c:83:e1:df:41:09:0c:c1:f9:e5:
        6a:45:3b:45:c7:9a:6e:24:e1:c9:52:2b:88:d9:1c:f7:4e:73:
        9c:4a:14:4c:fa:be:dd:1d:aa:c8:bb:fb:c4:12:bd:6c:94:3a:
        41:02
-----BEGIN CERTIFICATE-----
MIIChjCCAe+gAwIBAgICAXswDQYJKoZIhvcNAQENBQAwWjELMAkGA1UEBhMCVUcx
DzANBgNVBAcTBlRyb3BpYzEPMA0GA1UEChMGVXRvcGlhMRMwEQYDVQQLEwpSZWxh
eGF0aW9uMRQwEgYDVQQDEwt0aGUgZmFrZSBDQTAeFw0xMTEyMTUyMjI0MjJaFw0y
NTA4MjMyMjI0MjJaMGsxCzAJBgNVBAYTAlVHMQ8wDQYDVQQHEwZUcm9waWMxDzAN
BgNVBAoTBlV0b3BpYTETMBEGA1UECxMKUmVsYXhhdGlvbjElMCMGA1UEAxMcZmFr
ZSBjbGllbnQgd2l0aCBzaGE1MTIgaGFzaDCBnzANBgkqhkiG9w0BAQEFAAOBjQAw
gYkCgYEAzU9DFqcwYYWbvW0XAZ76ucg/ANP3SQAbNLul4iF3el3MxMB+oO0JDU2C
bRWu0m4rzCi6bXY784hQT4kg1liDi509vrQA8xegYRKhi9qzk+q25dsFGAJZgcT4
G6IHXrjxSBa9gcefqTTh00Msv1Dt9atWtMicXx+2RtXBeE5BShUCAwEAAaNKMEgw
EQYJYIZIAYb4QgEBBAQDAgWgMDMGCWCGSAGG+EIBDQQmFiRPcGVuU1NMIEdlbmVy
YXRlZCBDbGllbnQgQ2VydGlmaWNhdGUwDQYJKoZIhvcNAQENBQADgYEAvt23tDhy
FwtWqUjaY6NoTEcK0g99tGpOBtzSFSjvEGw5W5mZwEOR+TgeL8Y3OCjQF4s9gAPf
zq/qCq1JIGvf9HjzwS5EtpmpVX1aQSmXYQI8g+HfQQkMwfnlakU7RceabiThyVIr
iNkc905znEoUTPq+3R2qyLv7xBK9bJQ6QQI=
-----END CERTIFICATE-----
