Certificate:
    Data:
        Version: 3 (0x2)
        Serial Number: 375 (0x177)
        Signature Algorithm: md5WithRSAEncryption
        Issuer: C=UG, L=Tropic, O=Utopia, OU=Relaxation, CN=the fake CA
        Validity
            Not Before: Dec 15 22:24:21 2011 GMT
            Not After : Aug 23 22:24:21 2025 GMT
        Subject: C=UG, L=Tropic, O=Utopia, OU=Relaxation, CN=fake client with md5 hash
        Subject Public Key Info:
            Public Key Algorithm: rsaEncryption
            RSA Public Key: (1024 bit)
                Modulus (1024 bit):
                    00:cb:b3:90:04:f3:94:af:44:20:46:6b:3f:35:34:
                    68:22:97:8a:4c:3c:c2:ca:fa:9d:54:57:47:90:77:
                    40:e6:d3:ad:a0:81:ac:2d:c7:dd:3f:2e:17:fe:d9:
                    39:94:7c:92:d0:cb:e2:df:f8:80:c9:9d:9f:d1:47:
                    74:36:c6:4f:c0:12:b3:aa:09:e2:54:21:63:ea:e9:
                    88:71:38:fa:f9:7e:80:58:1c:9d:e8:28:91:aa:43:
                    0a:68:7a:76:09:a9:72:89:ae:ee:59:8d:44:09:10:
                    8f:ba:a1:38:e5:64:1e:51:58:c0:5b:9e:a6:3e:9d:
                    af:16:36:bc:09:3f:de:ae:a7
                Exponent: 65537 (0x10001)
        X509v3 extensions:
            Netscape Cert Type: 
                SSL Client, S/MIME
            Netscape Comment: 
                OpenSSL Generated Client Certificate
    Signature Algorithm: md5WithRSAEncryption
        b8:c6:99:cb:7d:77:d7:c4:a6:a0:b9:c2:b0:e5:cb:55:ca:e7:
        43:65:24:67:13:56:31:6a:4d:e8:c7:4b:2e:31:b9:c7:19:d9:
        35:76:2e:3c:da:02:06:5b:7b:ea:47:55:01:64:ef:f8:10:42:
        d3:b1:f5:50:06:1b:83:de:69:5d:a3:88:56:80:2f:27:a8:e7:
        6a:81:b2:32:41:4c:06:24:09:7e:c9:38:28:70:cd:1c:b0:01:
        c3:23:42:f7:d8:02:8c:ae:71:4c:f1:d3:b7:a3:02:4b:66:52:
        d8:46:25:de:bf:c6:ab:ee:e3:f6:18:04:46:3e:dd:d5:7f:22:
        21:6c
-----BEGIN CERTIFICATE-----
MIICgzCCAeygAwIBAgICAXcwDQYJKoZIhvcNAQEEBQAwWjELMAkGA1UEBhMCVUcx
DzANBgNVBAcTBlRyb3BpYzEPMA0GA1UEChMGVXRvcGlhMRMwEQYDVQQLEwpSZWxh
eGF0aW9uMRQwEgYDVQQDEwt0aGUgZmFrZSBDQTAeFw0xMTEyMTUyMjI0MjFaFw0y
NTA4MjMyMjI0MjFaMGgxCzAJBgNVBAYTAlVHMQ8wDQYDVQQHEwZUcm9waWMxDzAN
BgNVBAoTBlV0b3BpYTETMBEGA1UECxMKUmVsYXhhdGlvbjEiMCAGA1UEAxMZZmFr
ZSBjbGllbnQgd2l0aCBtZDUgaGFzaDCBnzANBgkqhkiG9w0BAQEFAAOBjQAwgYkC
gYEAy7OQBPOUr0QgRms/NTRoIpeKTDzCyvqdVFdHkHdA5tOtoIGsLcfdPy4X/tk5
lHyS0Mvi3/iAyZ2f0Ud0NsZPwBKzqgniVCFj6umIcTj6+X6AWByd6CiRqkMKaHp2
Calyia7uWY1ECRCPuqE45WQeUVjAW56mPp2vFja8CT/erqcCAwEAAaNKMEgwEQYJ
YIZIAYb4QgEBBAQDAgWgMDMGCWCGSAGG+EIBDQQmFiRPcGVuU1NMIEdlbmVyYXRl
ZCBDbGllbnQgQ2VydGlmaWNhdGUwDQYJKoZIhvcNAQEEBQADgYEAuMaZy31318Sm
oLnCsOXLVcrnQ2UkZxNWMWpN6MdLLjG5xxnZNXYuPNoCBlt76kdVAWTv+BBC07H1
UAYbg95pXaOIVoAvJ6jnaoGyMkFMBiQJfsk4KHDNHLABwyNC99gCjK5xTPHTt6MC
S2ZS2EYl3r/Gq+7j9hgERj7d1X8iIWw=
-----END CERTIFICATE-----
