Certificate:
    Data:
        Version: 3 (0x2)
        Serial Number: 379 (0x17b)
        Signature Algorithm: md5WithRSAEncryption
        Issuer: C=UG, L=Tropic, O=Utopia, OU=Relaxation, CN=the bad CA
        Validity
            Not Before: Dec 16 17:38:00 2010 GMT
            Not After : May  3 17:38:00 2038 GMT
        Subject: C=UG, L=Tropic, O=http://slash.slash.edu:7656/testing, OU=Relaxation, CN=bad client slash
        Subject Public Key Info:
            Public Key Algorithm: rsaEncryption
            RSA Public Key: (1024 bit)
                Modulus (1024 bit):
                    00:c9:96:a1:e3:49:02:be:df:7e:56:66:d7:1a:4f:
                    e1:f6:d9:41:52:e7:f2:56:da:2e:09:77:f9:38:50:
                    48:36:89:5b:da:87:36:ab:f8:08:65:f2:11:ba:f0:
                    e9:30:36:59:32:cd:80:5a:e3:39:4a:70:e0:51:b5:
                    fb:66:0d:a1:ae:38:0c:de:67:30:4f:9c:d4:c8:96:
                    fe:45:e7:de:08:1c:cd:16:1f:71:a9:cc:dc:a2:3b:
                    af:e9:0c:dc:3e:91:2c:3e:da:3e:bc:99:73:cd:7f:
                    28:fe:af:1f:fa:3e:1f:b6:7c:32:2b:ee:9a:8b:37:
                    70:d8:a2:6e:6c:fb:47:b4:7f
                Exponent: 65537 (0x10001)
        X509v3 extensions:
            Netscape Cert Type: 
                SSL Client, S/MIME
            Netscape Comment: 
                OpenSSL Generated Client Certificate
    Signature Algorithm: md5WithRSAEncryption
        27:ed:b5:e9:5f:7e:22:01:b9:51:61:4d:95:c1:fe:2b:d1:b8:
        be:80:86:3d:ed:fa:0a:ae:52:74:62:f1:b4:ad:e7:93:d3:da:
        5c:ee:c9:8a:a3:0d:f9:fd:19:9d:c6:b3:a7:de:72:42:61:6f:
        75:d2:3c:6e:f8:d3:d1:73:1a:06:91:2a:1b:eb:4e:ee:0c:a1:
        83:59:39:05:5c:53:21:d9:ce:15:9e:26:8f:48:d6:89:e7:24:
        46:f8:e7:2d:ca:15:74:6a:27:b4:50:dc:df:95:5a:51:37:8f:
        61:9e:bc:a5:71:4d:20:12:fe:52:de:42:5c:9b:c7:83:c5:a6:
        49:9c
-----BEGIN CERTIFICATE-----
MIICljCCAf+gAwIBAgICAXswDQYJKoZIhvcNAQEEBQAwWTELMAkGA1UEBhMCVUcx
DzANBgNVBAcTBlRyb3BpYzEPMA0GA1UEChMGVXRvcGlhMRMwEQYDVQQLEwpSZWxh
eGF0aW9uMRMwEQYDVQQDEwp0aGUgYmFkIENBMB4XDTEwMTIxNjE3MzgwMFoXDTM4
MDUwMzE3MzgwMFowfDELMAkGA1UEBhMCVUcxDzANBgNVBAcTBlRyb3BpYzEsMCoG
A1UEChMjaHR0cDovL3NsYXNoLnNsYXNoLmVkdTo3NjU2L3Rlc3RpbmcxEzARBgNV
BAsTClJlbGF4YXRpb24xGTAXBgNVBAMTEGJhZCBjbGllbnQgc2xhc2gwgZ8wDQYJ
KoZIhvcNAQEBBQADgY0AMIGJAoGBAMmWoeNJAr7fflZm1xpP4fbZQVLn8lbaLgl3
+ThQSDaJW9qHNqv4CGXyEbrw6TA2WTLNgFrjOUpw4FG1+2YNoa44DN5nME+c1MiW
/kXn3ggczRYfcanM3KI7r+kM3D6RLD7aPryZc81/KP6vH/o+H7Z8Mivumos3cNii
bmz7R7R/AgMBAAGjSjBIMBEGCWCGSAGG+EIBAQQEAwIFoDAzBglghkgBhvhCAQ0E
JhYkT3BlblNTTCBHZW5lcmF0ZWQgQ2xpZW50IENlcnRpZmljYXRlMA0GCSqGSIb3
DQEBBAUAA4GBACfttelffiIBuVFhTZXB/ivRuL6Ahj3t+gquUnRi8bSt55PT2lzu
yYqjDfn9GZ3Gs6feckJhb3XSPG7409FzGgaRKhvrTu4MoYNZOQVcUyHZzhWeJo9I
1onnJEb45y3KFXRqJ7RQ3N+VWlE3j2GevKVxTSAS/lLeQlybx4PFpkmc
-----END CERTIFICATE-----
