Certificate:
    Data:
        Version: 3 (0x2)
        Serial Number: 375 (0x177)
        Signature Algorithm: md5WithRSAEncryption
        Issuer: C=UG, L=Tropic, O=Utopia, OU=Relaxation, CN=the bad CA
        Validity
            Not Before: Dec 15 22:24:26 2011 GMT
            Not After : Aug 23 22:24:26 2025 GMT
        Subject: C=UG, L=Tropic, O=Utopia, OU=Relaxation, CN=bad client with md5 hash
        Subject Public Key Info:
            Public Key Algorithm: rsaEncryption
            RSA Public Key: (1024 bit)
                Modulus (1024 bit):
                    00:ac:83:8d:4e:4c:54:d3:bc:c5:57:8a:e7:00:33:
                    eb:9f:66:9a:e1:0d:6e:71:e9:3c:28:03:b5:01:ed:
                    21:2c:fa:01:af:17:ce:bb:92:47:03:fe:f7:6b:19:
                    0c:74:54:cb:93:5a:08:a5:07:50:c4:af:2c:c2:63:
                    3e:7a:24:53:aa:6e:a4:70:1e:0e:6d:47:46:57:b3:
                    ae:66:cb:1d:68:9b:cd:4b:64:99:51:78:48:bc:c9:
                    97:5c:db:0f:09:06:e1:3c:80:1c:5c:b7:a0:cb:99:
                    23:b8:8b:02:0e:a3:42:1c:3a:53:36:2e:b7:b5:2b:
                    a3:6a:04:6e:ee:24:a4:1a:a9
                Exponent: 65537 (0x10001)
        X509v3 extensions:
            Netscape Cert Type: 
                SSL Client, S/MIME
            Netscape Comment: 
                OpenSSL Generated Client Certificate
    Signature Algorithm: md5WithRSAEncryption
        93:85:4b:68:a9:62:09:ef:a9:a4:db:ab:4a:5b:b7:b6:f7:70:
        fa:5f:89:61:34:91:23:38:91:62:b6:45:96:cd:9d:1a:27:2a:
        0f:76:83:7f:01:88:22:7c:da:3b:89:1d:0c:b9:c5:89:9c:ff:
        67:f6:ee:4e:b7:62:06:5f:b2:b5:28:8d:b9:ed:dc:cd:e9:13:
        dc:aa:0c:3f:f8:aa:b3:ea:a9:b3:c2:fc:49:e9:3e:9e:28:6c:
        33:0d:e9:37:6e:8e:95:30:0e:d0:d7:4d:fe:6b:ca:87:a0:2a:
        d4:d0:20:cf:b5:b6:d6:df:7c:73:21:e2:04:97:c1:fb:85:68:
        97:f1
-----BEGIN CERTIFICATE-----
MIICgTCCAeqgAwIBAgICAXcwDQYJKoZIhvcNAQEEBQAwWTELMAkGA1UEBhMCVUcx
DzANBgNVBAcTBlRyb3BpYzEPMA0GA1UEChMGVXRvcGlhMRMwEQYDVQQLEwpSZWxh
eGF0aW9uMRMwEQYDVQQDEwp0aGUgYmFkIENBMB4XDTExMTIxNTIyMjQyNloXDTI1
MDgyMzIyMjQyNlowZzELMAkGA1UEBhMCVUcxDzANBgNVBAcTBlRyb3BpYzEPMA0G
A1UEChMGVXRvcGlhMRMwEQYDVQQLEwpSZWxheGF0aW9uMSEwHwYDVQQDExhiYWQg
Y2xpZW50IHdpdGggbWQ1IGhhc2gwgZ8wDQYJKoZIhvcNAQEBBQADgY0AMIGJAoGB
AKyDjU5MVNO8xVeK5wAz659mmuENbnHpPCgDtQHtISz6Aa8XzruSRwP+92sZDHRU
y5NaCKUHUMSvLMJjPnokU6pupHAeDm1HRlezrmbLHWibzUtkmVF4SLzJl1zbDwkG
4TyAHFy3oMuZI7iLAg6jQhw6UzYut7Uro2oEbu4kpBqpAgMBAAGjSjBIMBEGCWCG
SAGG+EIBAQQEAwIFoDAzBglghkgBhvhCAQ0EJhYkT3BlblNTTCBHZW5lcmF0ZWQg
Q2xpZW50IENlcnRpZmljYXRlMA0GCSqGSIb3DQEBBAUAA4GBAJOFS2ipYgnvqaTb
q0pbt7b3cPpfiWE0kSM4kWK2RZbNnRonKg92g38BiCJ82juJHQy5xYmc/2f27k63
YgZfsrUojbnt3M3pE9yqDD/4qrPqqbPC/EnpPp4obDMN6TdujpUwDtDXTf5ryoeg
KtTQIM+1ttbffHMh4gSXwfuFaJfx
-----END CERTIFICATE-----
