Certificate:
    Data:
        Version: 3 (0x2)
        Serial Number: 376 (0x178)
        Signature Algorithm: md5WithRSAEncryption
        Issuer: C=UG, L=Tropic, O=Utopia, OU=Relaxation, CN=the bad CA
        Validity
            Not Before: Jan  1 00:00:00 2035 GMT
            Not After : May  3 17:38:00 2038 GMT
        Subject: C=UG, L=Tropic, O=Utopia, OU=Relaxation, CN=bad client future
        Subject Public Key Info:
            Public Key Algorithm: rsaEncryption
            RSA Public Key: (1024 bit)
                Modulus (1024 bit):
                    00:dd:fb:a4:42:37:a0:d4:d5:cf:a8:55:d4:46:5b:
                    4c:15:a1:51:83:bd:43:be:e5:85:78:cc:21:1e:34:
                    0d:75:16:9f:f7:47:e7:29:30:10:41:0e:8e:0e:59:
                    4f:9e:e5:be:b7:cd:17:69:28:ed:38:e8:4a:c6:fc:
                    88:2c:8f:07:09:a0:f1:27:f8:e9:b9:63:19:50:f6:
                    e3:82:55:d7:1d:af:e0:39:46:ee:74:6b:df:4d:87:
                    ee:16:a5:26:5e:f3:0b:ae:16:1d:28:be:f7:0e:e4:
                    29:e9:69:da:d0:a9:9c:a1:02:1e:3a:61:d7:79:a1:
                    e7:59:e2:4f:a0:54:80:31:07
                Exponent: 65537 (0x10001)
        X509v3 extensions:
            Netscape Cert Type: 
                SSL Client, S/MIME
            Netscape Comment: 
                OpenSSL Generated Client Certificate
    Signature Algorithm: md5WithRSAEncryption
        1f:2f:00:ea:ba:72:15:90:c0:cc:3c:69:53:6e:68:6d:11:0f:
        d1:cd:6e:89:e2:35:0f:ab:b2:62:57:af:f4:89:42:f7:39:3a:
        3b:a4:1a:07:84:af:a9:62:b7:b1:ad:21:4d:bc:96:b8:df:cc:
        3f:76:71:50:93:af:ab:4e:32:bc:d1:0f:1f:d6:ec:36:b6:ae:
        ac:be:1a:d3:51:d1:cf:ce:74:4d:4b:46:83:55:9f:cb:54:af:
        98:ed:b7:fb:ee:d8:e2:3f:2f:50:9d:a6:2f:89:03:47:3b:17:
        8b:3d:8a:7a:d3:ad:b8:ab:8b:5d:3a:e5:25:be:23:9e:bd:ac:
        95:e5
-----BEGIN CERTIFICATE-----
MIICejCCAeOgAwIBAgICAXgwDQYJKoZIhvcNAQEEBQAwWTELMAkGA1UEBhMCVUcx
DzANBgNVBAcTBlRyb3BpYzEPMA0GA1UEChMGVXRvcGlhMRMwEQYDVQQLEwpSZWxh
eGF0aW9uMRMwEQYDVQQDEwp0aGUgYmFkIENBMB4XDTM1MDEwMTAwMDAwMFoXDTM4
MDUwMzE3MzgwMFowYDELMAkGA1UEBhMCVUcxDzANBgNVBAcTBlRyb3BpYzEPMA0G
A1UEChMGVXRvcGlhMRMwEQYDVQQLEwpSZWxheGF0aW9uMRowGAYDVQQDExFiYWQg
Y2xpZW50IGZ1dHVyZTCBnzANBgkqhkiG9w0BAQEFAAOBjQAwgYkCgYEA3fukQjeg
1NXPqFXURltMFaFRg71DvuWFeMwhHjQNdRaf90fnKTAQQQ6ODllPnuW+t80XaSjt
OOhKxvyILI8HCaDxJ/jpuWMZUPbjglXXHa/gOUbudGvfTYfuFqUmXvMLrhYdKL73
DuQp6Wna0KmcoQIeOmHXeaHnWeJPoFSAMQcCAwEAAaNKMEgwEQYJYIZIAYb4QgEB
BAQDAgWgMDMGCWCGSAGG+EIBDQQmFiRPcGVuU1NMIEdlbmVyYXRlZCBDbGllbnQg
Q2VydGlmaWNhdGUwDQYJKoZIhvcNAQEEBQADgYEAHy8A6rpyFZDAzDxpU25obREP
0c1uieI1D6uyYlev9IlC9zk6O6QaB4SvqWK3sa0hTbyWuN/MP3ZxUJOvq04yvNEP
H9bsNraurL4a01HRz850TUtGg1Wfy1SvmO23++7Y4j8vUJ2mL4kDRzsXiz2KetOt
uKuLXTrlJb4jnr2sleU=
-----END CERTIFICATE-----
