Certificate:
    Data:
        Version: 3 (0x2)
        Serial Number: 375 (0x177)
        Signature Algorithm: md5WithRSAEncryption
        Issuer: C=UG, L=Tropic, O=Utopia, OU=Relaxation, CN=the bad CA
        Validity
            Not Before: Dec 16 17:37:59 2010 GMT
            Not After : May  3 17:37:59 2038 GMT
        Subject: C=UG, L=Tropic, O=Utopia, OU=Chilling, CN=bad client with bad DN
        Subject Public Key Info:
            Public Key Algorithm: rsaEncryption
            RSA Public Key: (1024 bit)
                Modulus (1024 bit):
                    00:bb:59:4e:ac:db:56:0f:b1:49:a5:a7:0a:a9:f6:
                    2f:28:75:df:62:82:56:46:e6:5b:37:5c:cd:7b:3c:
                    eb:ef:b1:9b:de:62:60:7e:9c:94:e2:f7:69:36:dc:
                    31:fd:7d:55:c8:33:76:9b:11:00:85:f4:44:55:4e:
                    a8:48:d8:be:fc:ed:8a:3b:ae:80:06:54:a1:3a:7c:
                    a4:ec:5e:96:62:34:ac:fe:7c:c9:3f:4d:f5:27:0f:
                    ce:28:63:38:37:55:e1:ce:fd:87:49:e8:6f:46:22:
                    5a:19:1f:74:b8:f6:18:74:5f:6d:3c:e6:ad:68:0d:
                    46:1d:3a:f9:13:fe:2d:3c:65
                Exponent: 65537 (0x10001)
        X509v3 extensions:
            Netscape Cert Type: 
                SSL Client, S/MIME
            Netscape Comment: 
                OpenSSL Generated Client Certificate
    Signature Algorithm: md5WithRSAEncryption
        37:b4:8b:d2:c1:06:70:c4:35:ae:a3:04:e2:85:90:c3:76:85:
        f5:ba:c4:44:69:04:76:49:2d:6b:07:2f:dc:15:14:43:a7:e5:
        d4:8d:e9:31:57:4f:f4:40:c2:03:2c:11:1b:92:0f:a6:97:d5:
        04:69:24:7c:4b:31:42:56:14:74:f9:b9:8a:f7:3e:06:2b:29:
        a1:af:77:0f:bb:64:ca:29:bb:75:cb:56:ce:a1:85:bc:35:d9:
        1f:28:58:06:27:84:71:0f:fc:9b:79:29:60:26:2f:f5:28:58:
        37:a5:5a:c4:ab:2e:60:42:fe:bf:96:57:30:ec:e1:08:f3:48:
        8b:46
-----BEGIN CERTIFICATE-----
MIICfTCCAeagAwIBAgICAXcwDQYJKoZIhvcNAQEEBQAwWTELMAkGA1UEBhMCVUcx
DzANBgNVBAcTBlRyb3BpYzEPMA0GA1UEChMGVXRvcGlhMRMwEQYDVQQLEwpSZWxh
eGF0aW9uMRMwEQYDVQQDEwp0aGUgYmFkIENBMB4XDTEwMTIxNjE3Mzc1OVoXDTM4
MDUwMzE3Mzc1OVowYzELMAkGA1UEBhMCVUcxDzANBgNVBAcTBlRyb3BpYzEPMA0G
A1UEChMGVXRvcGlhMREwDwYDVQQLEwhDaGlsbGluZzEfMB0GA1UEAxMWYmFkIGNs
aWVudCB3aXRoIGJhZCBETjCBnzANBgkqhkiG9w0BAQEFAAOBjQAwgYkCgYEAu1lO
rNtWD7FJpacKqfYvKHXfYoJWRuZbN1zNezzr77Gb3mJgfpyU4vdpNtwx/X1VyDN2
mxEAhfREVU6oSNi+/O2KO66ABlShOnyk7F6WYjSs/nzJP031Jw/OKGM4N1Xhzv2H
SehvRiJaGR90uPYYdF9tPOataA1GHTr5E/4tPGUCAwEAAaNKMEgwEQYJYIZIAYb4
QgEBBAQDAgWgMDMGCWCGSAGG+EIBDQQmFiRPcGVuU1NMIEdlbmVyYXRlZCBDbGll
bnQgQ2VydGlmaWNhdGUwDQYJKoZIhvcNAQEEBQADgYEAN7SL0sEGcMQ1rqME4oWQ
w3aF9brERGkEdkktawcv3BUUQ6fl1I3pMVdP9EDCAywRG5IPppfVBGkkfEsxQlYU
dPm5ivc+Bispoa93D7tkyim7dctWzqGFvDXZHyhYBieEcQ/8m3kpYCYv9ShYN6Va
xKsuYEL+v5ZXMOzhCPNIi0Y=
-----END CERTIFICATE-----
