Certificate:
    Data:
        Version: 3 (0x2)
        Serial Number: 384 (0x180)
        Signature Algorithm: sha1WithRSAEncryption
        Issuer: C=UG, L=Tropic, O=Utopia, OU=Relaxation, CN=the bad CA
        Validity
            Not Before: Dec 15 22:24:28 2011 GMT
            Not After : Aug 23 22:24:28 2025 GMT
        Subject: C=UG, L=Tropic, O=http://slash.slash.edu:7656/testing, OU=Relaxation, CN=bad client slash
        Subject Public Key Info:
            Public Key Algorithm: rsaEncryption
            RSA Public Key: (1024 bit)
                Modulus (1024 bit):
                    00:b6:7a:7e:b4:72:8b:35:3b:d3:56:d3:2f:06:35:
                    72:0c:19:c0:8d:05:92:f7:46:ad:70:f6:04:c0:c0:
                    69:a6:33:f4:09:5a:a1:a5:c2:fa:3a:69:6a:85:16:
                    84:ab:b9:ee:7b:4f:af:2e:ff:f2:c1:02:73:35:64:
                    33:88:d0:ac:cf:1d:4c:37:5f:f6:3f:1a:58:35:47:
                    bb:e3:52:d9:36:d4:06:8d:28:92:9f:98:1f:71:78:
                    b5:e0:40:7f:74:11:3a:ff:e0:c1:33:f5:40:ad:f0:
                    ca:cb:34:1a:37:41:4a:6b:54:a9:88:48:a1:e8:71:
                    07:48:10:04:43:82:77:49:9b
                Exponent: 65537 (0x10001)
        X509v3 extensions:
            Netscape Cert Type: 
                SSL Client, S/MIME
            Netscape Comment: 
                OpenSSL Generated Client Certificate
    Signature Algorithm: sha1WithRSAEncryption
        68:49:06:2e:04:b7:26:3c:09:df:47:ae:7b:7d:d3:35:d1:a6:
        18:ad:42:0f:38:73:c0:10:6f:c4:42:18:6b:10:8a:67:9c:f5:
        36:df:43:c9:2d:a9:04:e6:05:8c:39:39:99:fc:68:93:bd:1b:
        d7:31:da:9e:23:5a:72:9d:c5:11:ae:a4:d9:35:c0:84:33:96:
        b7:04:40:60:84:7a:21:3c:bd:04:92:ca:f7:f9:30:75:00:75:
        4b:a6:2f:10:22:ee:7c:40:b2:e6:a5:43:82:e3:4f:87:15:9b:
        02:89:7d:54:5f:19:65:3e:bf:41:fc:f5:06:b2:41:77:71:ea:
        28:78
-----BEGIN CERTIFICATE-----
MIICljCCAf+gAwIBAgICAYAwDQYJKoZIhvcNAQEFBQAwWTELMAkGA1UEBhMCVUcx
DzANBgNVBAcTBlRyb3BpYzEPMA0GA1UEChMGVXRvcGlhMRMwEQYDVQQLEwpSZWxh
eGF0aW9uMRMwEQYDVQQDEwp0aGUgYmFkIENBMB4XDTExMTIxNTIyMjQyOFoXDTI1
MDgyMzIyMjQyOFowfDELMAkGA1UEBhMCVUcxDzANBgNVBAcTBlRyb3BpYzEsMCoG
A1UEChMjaHR0cDovL3NsYXNoLnNsYXNoLmVkdTo3NjU2L3Rlc3RpbmcxEzARBgNV
BAsTClJlbGF4YXRpb24xGTAXBgNVBAMTEGJhZCBjbGllbnQgc2xhc2gwgZ8wDQYJ
KoZIhvcNAQEBBQADgY0AMIGJAoGBALZ6frRyizU701bTLwY1cgwZwI0FkvdGrXD2
BMDAaaYz9AlaoaXC+jppaoUWhKu57ntPry7/8sECczVkM4jQrM8dTDdf9j8aWDVH
u+NS2TbUBo0okp+YH3F4teBAf3QROv/gwTP1QK3wyss0GjdBSmtUqYhIoehxB0gQ
BEOCd0mbAgMBAAGjSjBIMBEGCWCGSAGG+EIBAQQEAwIFoDAzBglghkgBhvhCAQ0E
JhYkT3BlblNTTCBHZW5lcmF0ZWQgQ2xpZW50IENlcnRpZmljYXRlMA0GCSqGSIb3
DQEBBQUAA4GBAGhJBi4EtyY8Cd9Hrnt90zXRphitQg84c8AQb8RCGGsQimec9Tbf
Q8ktqQTmBYw5OZn8aJO9G9cx2p4jWnKdxRGupNk1wIQzlrcEQGCEeiE8vQSSyvf5
MHUAdUumLxAi7nxAsualQ4LjT4cVmwKJfVRfGWU+v0H89QayQXdx6ih4
-----END CERTIFICATE-----
