Certificate:
    Data:
        Version: 3 (0x2)
        Serial Number: 374 (0x176)
        Signature Algorithm: md5WithRSAEncryption
        Issuer: C=UG, L=Tropic, O=Utopia, OU=Relaxation, CN=the bad CA
        Validity
            Not Before: Dec 16 17:37:57 2010 GMT
            Not After : May  3 17:37:57 2038 GMT
        Subject: C=UG, L=Tropic, O=Utopia, OU=Relaxation, CN=bad client
        Subject Public Key Info:
            Public Key Algorithm: rsaEncryption
            RSA Public Key: (1024 bit)
                Modulus (1024 bit):
                    00:b6:91:45:4f:6e:bc:73:1e:bb:39:f8:75:84:c5:
                    d8:a7:63:ae:29:28:96:60:8f:1b:02:ef:7e:e0:c4:
                    fb:1e:e4:bd:1f:88:91:9e:73:ca:58:77:d7:4d:ff:
                    96:bc:f6:95:54:eb:89:79:0c:68:79:f5:dd:b1:0d:
                    03:ab:b9:14:38:7d:81:75:2a:f0:88:81:72:1e:cf:
                    07:71:1d:38:19:37:5e:9f:b2:0f:04:65:a2:da:e0:
                    ba:a2:a5:d4:3e:2d:9c:c2:b7:9d:96:68:e4:0b:82:
                    7d:c6:9a:73:dc:d9:02:59:79:4d:19:f9:35:3f:63:
                    78:0c:82:8a:da:3c:ef:cd:a5
                Exponent: 65537 (0x10001)
        X509v3 extensions:
            Netscape Cert Type: 
                SSL Client, S/MIME
            Netscape Comment: 
                OpenSSL Generated Client Certificate
    Signature Algorithm: md5WithRSAEncryption
        af:1b:99:1b:fc:ec:41:b9:87:ef:9a:49:95:89:ed:5a:9d:54:
        c7:8c:8b:5a:d9:85:53:a5:96:3a:25:a0:83:52:df:cc:d6:71:
        16:9b:9d:61:53:7a:c5:89:0c:18:2a:01:57:7d:ae:e4:83:a5:
        90:aa:72:90:4b:c4:8d:a1:3d:fa:93:29:57:14:34:5a:28:23:
        ed:ec:d4:41:43:3d:77:c7:93:33:ba:c5:f0:b1:25:48:76:75:
        7f:34:b5:de:34:04:54:46:33:39:e4:fe:51:9d:58:e2:b6:15:
        6f:c0:80:2b:0e:79:d1:99:d4:d8:5a:07:0e:ff:89:c3:0f:26:
        e6:29
-----BEGIN CERTIFICATE-----
MIICczCCAdygAwIBAgICAXYwDQYJKoZIhvcNAQEEBQAwWTELMAkGA1UEBhMCVUcx
DzANBgNVBAcTBlRyb3BpYzEPMA0GA1UEChMGVXRvcGlhMRMwEQYDVQQLEwpSZWxh
eGF0aW9uMRMwEQYDVQQDEwp0aGUgYmFkIENBMB4XDTEwMTIxNjE3Mzc1N1oXDTM4
MDUwMzE3Mzc1N1owWTELMAkGA1UEBhMCVUcxDzANBgNVBAcTBlRyb3BpYzEPMA0G
A1UEChMGVXRvcGlhMRMwEQYDVQQLEwpSZWxheGF0aW9uMRMwEQYDVQQDEwpiYWQg
Y2xpZW50MIGfMA0GCSqGSIb3DQEBAQUAA4GNADCBiQKBgQC2kUVPbrxzHrs5+HWE
xdinY64pKJZgjxsC737gxPse5L0fiJGec8pYd9dN/5a89pVU64l5DGh59d2xDQOr
uRQ4fYF1KvCIgXIezwdxHTgZN16fsg8EZaLa4LqipdQ+LZzCt52WaOQLgn3GmnPc
2QJZeU0Z+TU/Y3gMgoraPO/NpQIDAQABo0owSDARBglghkgBhvhCAQEEBAMCBaAw
MwYJYIZIAYb4QgENBCYWJE9wZW5TU0wgR2VuZXJhdGVkIENsaWVudCBDZXJ0aWZp
Y2F0ZTANBgkqhkiG9w0BAQQFAAOBgQCvG5kb/OxBuYfvmkmVie1anVTHjIta2YVT
pZY6JaCDUt/M1nEWm51hU3rFiQwYKgFXfa7kg6WQqnKQS8SNoT36kylXFDRaKCPt
7NRBQz13x5MzusXwsSVIdnV/NLXeNARURjM55P5RnVjithVvwIArDnnRmdTYWgcO
/4nDDybmKQ==
-----END CERTIFICATE-----
