Certificate:
    Data:
        Version: 3 (0x2)
        Serial Number: 376 (0x178)
        Signature Algorithm: sha224WithRSAEncryption
        Issuer: C=UG, L=Tropic, O=Utopia, OU=Relaxation, CN=the bad CA
        Validity
            Not Before: Dec 15 22:24:26 2011 GMT
            Not After : Aug 23 22:24:26 2025 GMT
        Subject: C=UG, L=Tropic, O=Utopia, OU=Relaxation, CN=bad client with sha224 hash
        Subject Public Key Info:
            Public Key Algorithm: rsaEncryption
            RSA Public Key: (1024 bit)
                Modulus (1024 bit):
                    00:d5:b7:ec:05:a2:ee:24:3a:c3:fa:99:ab:32:73:
                    d8:6b:4d:8e:00:e7:b0:62:63:c0:2e:a3:87:c8:7e:
                    15:3e:96:f7:27:aa:d8:fe:9b:0a:c1:54:66:04:20:
                    01:d1:e2:11:74:94:dd:2c:90:80:5b:2b:ed:b8:5b:
                    36:16:eb:15:02:16:af:37:b4:ed:fa:c5:ef:db:1d:
                    e3:c7:4b:e0:9c:70:d4:5e:fd:12:0d:0d:87:28:7f:
                    b9:f3:c9:59:b4:97:2e:4c:ab:82:73:2b:24:30:d2:
                    fa:45:71:e7:29:ac:9b:80:79:08:f8:ec:42:be:12:
                    8e:88:59:68:e3:6b:51:e4:8f
                Exponent: 65537 (0x10001)
        X509v3 extensions:
            Netscape Cert Type: 
                SSL Client, S/MIME
            Netscape Comment: 
                OpenSSL Generated Client Certificate
    Signature Algorithm: sha224WithRSAEncryption
        7b:12:b8:13:e0:45:3d:30:5b:89:3e:ef:49:f4:f8:aa:80:9e:
        04:04:05:28:47:2c:44:9a:85:fa:7c:5b:cb:88:64:65:69:13:
        e6:c6:2d:43:83:a0:22:6b:ed:1e:8e:38:2f:09:e7:49:c7:cf:
        b8:86:c8:a3:2a:3a:cb:34:c1:05:fe:55:3f:35:6f:40:e7:e8:
        42:d3:2a:0b:35:1f:2e:5d:6f:58:3a:04:d9:2f:9b:f8:0e:f0:
        46:cb:c9:30:48:ff:e2:e2:0e:69:f6:0f:ba:23:9c:6b:f1:2e:
        de:50:fd:d4:13:1b:99:be:62:61:a7:01:61:5f:9a:54:c6:ed:
        32:00
-----BEGIN CERTIFICATE-----
MIIChDCCAe2gAwIBAgICAXgwDQYJKoZIhvcNAQEOBQAwWTELMAkGA1UEBhMCVUcx
DzANBgNVBAcTBlRyb3BpYzEPMA0GA1UEChMGVXRvcGlhMRMwEQYDVQQLEwpSZWxh
eGF0aW9uMRMwEQYDVQQDEwp0aGUgYmFkIENBMB4XDTExMTIxNTIyMjQyNloXDTI1
MDgyMzIyMjQyNlowajELMAkGA1UEBhMCVUcxDzANBgNVBAcTBlRyb3BpYzEPMA0G
A1UEChMGVXRvcGlhMRMwEQYDVQQLEwpSZWxheGF0aW9uMSQwIgYDVQQDExtiYWQg
Y2xpZW50IHdpdGggc2hhMjI0IGhhc2gwgZ8wDQYJKoZIhvcNAQEBBQADgY0AMIGJ
AoGBANW37AWi7iQ6w/qZqzJz2GtNjgDnsGJjwC6jh8h+FT6W9yeq2P6bCsFUZgQg
AdHiEXSU3SyQgFsr7bhbNhbrFQIWrze07frF79sd48dL4Jxw1F79Eg0Nhyh/ufPJ
WbSXLkyrgnMrJDDS+kVx5ymsm4B5CPjsQr4SjohZaONrUeSPAgMBAAGjSjBIMBEG
CWCGSAGG+EIBAQQEAwIFoDAzBglghkgBhvhCAQ0EJhYkT3BlblNTTCBHZW5lcmF0
ZWQgQ2xpZW50IENlcnRpZmljYXRlMA0GCSqGSIb3DQEBDgUAA4GBAHsSuBPgRT0w
W4k+70n0+KqAngQEBShHLESahfp8W8uIZGVpE+bGLUODoCJr7R6OOC8J50nHz7iG
yKMqOss0wQX+VT81b0Dn6ELTKgs1Hy5db1g6BNkvm/gO8EbLyTBI/+LiDmn2D7oj
nGvxLt5Q/dQTG5m+YmGnAWFfmlTG7TIA
-----END CERTIFICATE-----
