Certificate:
    Data:
        Version: 3 (0x2)
        Serial Number: 378 (0x17a)
        Signature Algorithm: md5WithRSAEncryption
        Issuer: C=UG, L=Tropic, O=Utopia, OU=Relaxation, CN=the bad CA
        Validity
            Not Before: Dec 16 17:38:00 2010 GMT
            Not After : May  3 17:38:00 2038 GMT
        Subject: C=UG, L=Tropic, O=Utopia, OU=Relaxation, CN=bad client revoked
        Subject Public Key Info:
            Public Key Algorithm: rsaEncryption
            RSA Public Key: (1024 bit)
                Modulus (1024 bit):
                    00:ee:bf:b5:ac:75:39:db:2d:71:da:58:9c:c7:b9:
                    5f:d9:3c:fb:8c:e9:42:74:46:4c:5a:d5:3b:4c:bd:
                    8b:d8:ca:fd:de:64:01:f1:1b:d0:03:67:44:c1:c5:
                    25:c7:c8:72:76:a7:e4:de:1c:12:31:b3:4d:a8:9c:
                    2b:51:dc:c8:af:31:a3:6e:5c:59:fb:78:94:66:f7:
                    ad:57:16:7b:ec:00:a1:c4:51:dd:c0:92:38:7e:6f:
                    ec:29:9b:76:83:27:bf:db:c6:e9:42:80:63:bb:ac:
                    26:f8:18:d4:ac:6d:a7:77:63:d8:16:31:2b:32:f8:
                    2d:91:82:37:7a:39:2e:f8:21
                Exponent: 65537 (0x10001)
        X509v3 extensions:
            Netscape Cert Type: 
                SSL Client, S/MIME
            Netscape Comment: 
                OpenSSL Generated Client Certificate
    Signature Algorithm: md5WithRSAEncryption
        a9:76:7b:45:30:42:8c:f5:d9:88:cf:06:f8:ca:d5:ad:a9:b1:
        a7:60:e5:b6:ba:49:28:34:dd:89:11:ad:a5:a0:b4:41:8d:49:
        58:f5:e7:42:c9:76:97:2f:69:60:60:c0:8d:f7:11:29:e6:e6:
        03:8e:bd:47:bc:1d:ee:08:fa:e5:30:66:ad:55:dc:8e:c4:bf:
        b7:eb:20:d4:a2:d5:bf:b1:1a:28:82:05:94:d6:6b:1b:13:5d:
        c1:97:17:32:d6:a7:25:df:c1:fb:ec:3f:95:1b:c8:8a:a1:97:
        7b:59:9a:8f:03:92:11:e9:3c:88:8f:1c:c4:b2:8f:a3:8f:36:
        6d:4f
-----BEGIN CERTIFICATE-----
MIICezCCAeSgAwIBAgICAXowDQYJKoZIhvcNAQEEBQAwWTELMAkGA1UEBhMCVUcx
DzANBgNVBAcTBlRyb3BpYzEPMA0GA1UEChMGVXRvcGlhMRMwEQYDVQQLEwpSZWxh
eGF0aW9uMRMwEQYDVQQDEwp0aGUgYmFkIENBMB4XDTEwMTIxNjE3MzgwMFoXDTM4
MDUwMzE3MzgwMFowYTELMAkGA1UEBhMCVUcxDzANBgNVBAcTBlRyb3BpYzEPMA0G
A1UEChMGVXRvcGlhMRMwEQYDVQQLEwpSZWxheGF0aW9uMRswGQYDVQQDExJiYWQg
Y2xpZW50IHJldm9rZWQwgZ8wDQYJKoZIhvcNAQEBBQADgY0AMIGJAoGBAO6/tax1
OdstcdpYnMe5X9k8+4zpQnRGTFrVO0y9i9jK/d5kAfEb0ANnRMHFJcfIcnan5N4c
EjGzTaicK1HcyK8xo25cWft4lGb3rVcWe+wAocRR3cCSOH5v7CmbdoMnv9vG6UKA
Y7usJvgY1Kxtp3dj2BYxKzL4LZGCN3o5LvghAgMBAAGjSjBIMBEGCWCGSAGG+EIB
AQQEAwIFoDAzBglghkgBhvhCAQ0EJhYkT3BlblNTTCBHZW5lcmF0ZWQgQ2xpZW50
IENlcnRpZmljYXRlMA0GCSqGSIb3DQEBBAUAA4GBAKl2e0UwQoz12YjPBvjK1a2p
sadg5ba6SSg03YkRraWgtEGNSVj150LJdpcvaWBgwI33ESnm5gOOvUe8He4I+uUw
Zq1V3I7Ev7frINSi1b+xGiiCBZTWaxsTXcGXFzLWpyXfwfvsP5UbyIqhl3tZmo8D
khHpPIiPHMSyj6OPNm1P
-----END CERTIFICATE-----
