Certificate:
    Data:
        Version: 3 (0x2)
        Serial Number: 377 (0x179)
        Signature Algorithm: md5WithRSAEncryption
        Issuer: C=UG, L=Tropic, O=Utopia, OU=Relaxation, CN=the bad CA
        Validity
            Not Before: Dec 16 17:38:00 2010 GMT
            Not After : Dec 15 17:38:00 2010 GMT
        Subject: C=UG, L=Tropic, O=Utopia, OU=Relaxation, CN=bad client expired
        Subject Public Key Info:
            Public Key Algorithm: rsaEncryption
            RSA Public Key: (1024 bit)
                Modulus (1024 bit):
                    00:ca:ec:60:34:39:3e:b3:60:75:f9:44:27:67:37:
                    be:97:e0:9b:2e:1b:b8:b1:9e:6a:fc:b7:b8:26:fe:
                    4e:ff:6c:ac:01:19:01:2c:01:d2:a4:f8:9b:0d:27:
                    e4:8a:fa:16:2b:4e:29:56:0e:c2:1a:97:4f:d5:24:
                    d1:5d:87:a7:a8:23:0d:99:d2:6c:a4:15:e8:9a:e6:
                    53:e3:86:d7:78:7d:5a:33:e4:05:75:60:66:03:63:
                    f2:01:49:0c:46:0e:39:12:de:63:2f:4d:bc:b7:b4:
                    23:76:d2:39:81:c7:0d:47:0c:41:5e:4c:90:07:2b:
                    42:ee:da:a7:2d:d2:04:6f:13
                Exponent: 65537 (0x10001)
        X509v3 extensions:
            Netscape Cert Type: 
                SSL Client, S/MIME
            Netscape Comment: 
                OpenSSL Generated Client Certificate
    Signature Algorithm: md5WithRSAEncryption
        1d:24:19:49:e0:f6:5b:c3:d3:44:60:27:e3:5a:71:17:5d:11:
        2a:15:ac:ab:87:21:6b:4c:21:a8:09:15:f4:80:52:07:78:51:
        bd:b2:a1:b6:76:3c:42:7f:f3:f2:e5:90:97:80:bd:81:a2:71:
        9d:06:7a:6f:1c:cb:74:03:b3:86:63:f5:24:2a:8f:10:53:3e:
        92:9a:a8:c3:b5:44:b9:a3:21:75:00:8c:b8:59:bd:4f:8c:b6:
        d0:2e:c1:a0:f6:d8:8f:dd:9e:20:17:63:38:15:b8:7a:f5:ff:
        a3:a7:96:82:14:96:b5:58:a3:42:1f:0a:ac:ee:5f:87:be:b5:
        43:5b
-----BEGIN CERTIFICATE-----
MIICezCCAeSgAwIBAgICAXkwDQYJKoZIhvcNAQEEBQAwWTELMAkGA1UEBhMCVUcx
DzANBgNVBAcTBlRyb3BpYzEPMA0GA1UEChMGVXRvcGlhMRMwEQYDVQQLEwpSZWxh
eGF0aW9uMRMwEQYDVQQDEwp0aGUgYmFkIENBMB4XDTEwMTIxNjE3MzgwMFoXDTEw
MTIxNTE3MzgwMFowYTELMAkGA1UEBhMCVUcxDzANBgNVBAcTBlRyb3BpYzEPMA0G
A1UEChMGVXRvcGlhMRMwEQYDVQQLEwpSZWxheGF0aW9uMRswGQYDVQQDExJiYWQg
Y2xpZW50IGV4cGlyZWQwgZ8wDQYJKoZIhvcNAQEBBQADgY0AMIGJAoGBAMrsYDQ5
PrNgdflEJ2c3vpfgmy4buLGeavy3uCb+Tv9srAEZASwB0qT4mw0n5Ir6FitOKVYO
whqXT9Uk0V2Hp6gjDZnSbKQV6JrmU+OG13h9WjPkBXVgZgNj8gFJDEYOORLeYy9N
vLe0I3bSOYHHDUcMQV5MkAcrQu7apy3SBG8TAgMBAAGjSjBIMBEGCWCGSAGG+EIB
AQQEAwIFoDAzBglghkgBhvhCAQ0EJhYkT3BlblNTTCBHZW5lcmF0ZWQgQ2xpZW50
IENlcnRpZmljYXRlMA0GCSqGSIb3DQEBBAUAA4GBAB0kGUng9lvD00RgJ+NacRdd
ESoVrKuHIWtMIagJFfSAUgd4Ub2yobZ2PEJ/8/LlkJeAvYGicZ0Gem8cy3QDs4Zj
9SQqjxBTPpKaqMO1RLmjIXUAjLhZvU+MttAuwaD22I/dniAXYzgVuHr1/6OnloIU
lrVYo0IfCqzuX4e+tUNb
-----END CERTIFICATE-----
