Certificate:
    Data:
        Version: 3 (0x2)
        Serial Number: 383 (0x17f)
        Signature Algorithm: sha1WithRSAEncryption
        Issuer: C=UG, L=Tropic, O=Utopia, OU=Relaxation, CN=the bad CA
        Validity
            Not Before: Dec 15 22:24:28 2011 GMT
            Not After : Aug 23 22:24:28 2025 GMT
        Subject: C=UG, L=Tropic, O=Utopia, OU=Relaxation, CN=bad client revoked
        Subject Public Key Info:
            Public Key Algorithm: rsaEncryption
            RSA Public Key: (1024 bit)
                Modulus (1024 bit):
                    00:ac:3f:d9:fc:77:1e:71:9c:b9:21:f8:4b:21:78:
                    2e:a5:30:c7:b3:64:fc:00:15:0c:11:e6:d0:43:af:
                    27:5d:de:46:76:59:2b:99:e4:99:3b:39:40:1f:c8:
                    59:d3:16:bc:9f:4f:d6:26:01:0b:29:ff:ed:9c:49:
                    d1:4b:9d:31:1a:13:29:d8:0c:1e:94:34:64:f7:57:
                    28:57:10:e6:c9:13:82:bb:46:fd:75:0b:c3:ac:d2:
                    ab:b5:19:6e:f7:f8:cb:f7:f9:f3:12:73:1d:d8:0f:
                    b7:c5:9b:ee:92:c7:29:e7:92:05:0f:fa:74:e7:9c:
                    7b:5a:92:3b:17:4d:f7:2d:bf
                Exponent: 65537 (0x10001)
        X509v3 extensions:
            Netscape Cert Type: 
                SSL Client, S/MIME
            Netscape Comment: 
                OpenSSL Generated Client Certificate
    Signature Algorithm: sha1WithRSAEncryption
        2a:4a:bc:41:da:85:44:4c:fc:92:a7:b5:9d:16:fd:cf:0b:6e:
        d1:1c:58:df:f6:b2:d5:a4:62:1c:a4:da:89:20:9d:e5:7c:99:
        3c:cc:6b:ba:6d:02:c5:86:bc:cf:9c:8c:d6:8d:f5:82:e9:c2:
        ac:18:96:e5:74:0c:68:32:d6:d8:af:fd:dd:d3:60:b9:62:e0:
        18:23:2c:bc:06:52:58:c6:4f:c4:9d:e4:39:72:76:01:07:62:
        3a:08:f4:ec:ba:d1:6f:bd:9b:d2:52:36:74:da:13:f2:c5:14:
        67:a5:67:e0:57:4f:df:7e:ed:b5:ba:0a:49:3d:f0:76:4f:e0:
        19:5e
-----BEGIN CERTIFICATE-----
MIICezCCAeSgAwIBAgICAX8wDQYJKoZIhvcNAQEFBQAwWTELMAkGA1UEBhMCVUcx
DzANBgNVBAcTBlRyb3BpYzEPMA0GA1UEChMGVXRvcGlhMRMwEQYDVQQLEwpSZWxh
eGF0aW9uMRMwEQYDVQQDEwp0aGUgYmFkIENBMB4XDTExMTIxNTIyMjQyOFoXDTI1
MDgyMzIyMjQyOFowYTELMAkGA1UEBhMCVUcxDzANBgNVBAcTBlRyb3BpYzEPMA0G
A1UEChMGVXRvcGlhMRMwEQYDVQQLEwpSZWxheGF0aW9uMRswGQYDVQQDExJiYWQg
Y2xpZW50IHJldm9rZWQwgZ8wDQYJKoZIhvcNAQEBBQADgY0AMIGJAoGBAKw/2fx3
HnGcuSH4SyF4LqUwx7Nk/AAVDBHm0EOvJ13eRnZZK5nkmTs5QB/IWdMWvJ9P1iYB
Cyn/7ZxJ0UudMRoTKdgMHpQ0ZPdXKFcQ5skTgrtG/XULw6zSq7UZbvf4y/f58xJz
HdgPt8Wb7pLHKeeSBQ/6dOece1qSOxdN9y2/AgMBAAGjSjBIMBEGCWCGSAGG+EIB
AQQEAwIFoDAzBglghkgBhvhCAQ0EJhYkT3BlblNTTCBHZW5lcmF0ZWQgQ2xpZW50
IENlcnRpZmljYXRlMA0GCSqGSIb3DQEBBQUAA4GBACpKvEHahURM/JKntZ0W/c8L
btEcWN/2stWkYhyk2okgneV8mTzMa7ptAsWGvM+cjNaN9YLpwqwYluV0DGgy1tiv
/d3TYLli4BgjLLwGUljGT8Sd5DlydgEHYjoI9Oy60W+9m9JSNnTaE/LFFGelZ+BX
T99+7bW6Ckk98HZP4Ble
-----END CERTIFICATE-----
