Certificate:
    Data:
        Version: 3 (0x2)
        Serial Number: 379 (0x17b)
        Signature Algorithm: sha512WithRSAEncryption
        Issuer: C=UG, L=Tropic, O=Utopia, OU=Relaxation, CN=the bad CA
        Validity
            Not Before: Dec 15 22:24:27 2011 GMT
            Not After : Aug 23 22:24:27 2025 GMT
        Subject: C=UG, L=Tropic, O=Utopia, OU=Relaxation, CN=bad client with sha512 hash
        Subject Public Key Info:
            Public Key Algorithm: rsaEncryption
            RSA Public Key: (1024 bit)
                Modulus (1024 bit):
                    00:b1:ea:b9:48:48:de:2f:66:57:2e:3e:be:07:ca:
                    63:65:ca:34:85:8a:4b:c8:09:5d:bb:de:60:68:72:
                    31:cd:53:3d:25:4f:fb:fd:7e:48:11:42:d9:82:0d:
                    44:b7:ae:50:ed:3f:ef:a2:3e:15:c6:b3:5d:29:50:
                    5a:b4:64:34:16:60:00:d0:75:9b:a1:3c:14:f8:60:
                    d3:f3:25:3b:67:2c:7e:e9:65:24:57:ce:8a:45:76:
                    30:b2:65:6a:7a:b3:25:0c:06:7c:13:45:17:58:8a:
                    da:32:92:0d:f4:2c:fa:52:83:dd:34:d2:47:3a:49:
                    c3:5c:30:9c:ed:ad:af:c7:17
                Exponent: 65537 (0x10001)
        X509v3 extensions:
            Netscape Cert Type: 
                SSL Client, S/MIME
            Netscape Comment: 
                OpenSSL Generated Client Certificate
    Signature Algorithm: sha512WithRSAEncryption
        99:5d:44:50:73:c5:c5:33:d5:4d:f2:1d:de:12:3d:37:9c:96:
        d0:8c:37:a0:8d:8e:0c:ea:8b:04:1d:e2:f1:a9:ef:c2:4f:91:
        6b:51:dc:fc:e7:17:ab:41:17:49:00:7e:ae:df:28:e5:42:f8:
        51:a9:d0:40:40:a2:8c:43:15:1a:79:d0:ac:77:59:d9:5d:a3:
        93:b0:93:5b:fc:7e:3e:45:3a:29:cc:95:05:dc:f4:db:6b:9b:
        cc:c6:6a:cd:7a:0a:70:58:5e:18:33:cb:1e:8a:ca:c2:bc:3d:
        da:b9:3a:7f:7f:45:5c:9a:fc:e5:6f:ca:67:07:be:c1:db:93:
        4b:5a
-----BEGIN CERTIFICATE-----
MIIChDCCAe2gAwIBAgICAXswDQYJKoZIhvcNAQENBQAwWTELMAkGA1UEBhMCVUcx
DzANBgNVBAcTBlRyb3BpYzEPMA0GA1UEChMGVXRvcGlhMRMwEQYDVQQLEwpSZWxh
eGF0aW9uMRMwEQYDVQQDEwp0aGUgYmFkIENBMB4XDTExMTIxNTIyMjQyN1oXDTI1
MDgyMzIyMjQyN1owajELMAkGA1UEBhMCVUcxDzANBgNVBAcTBlRyb3BpYzEPMA0G
A1UEChMGVXRvcGlhMRMwEQYDVQQLEwpSZWxheGF0aW9uMSQwIgYDVQQDExtiYWQg
Y2xpZW50IHdpdGggc2hhNTEyIGhhc2gwgZ8wDQYJKoZIhvcNAQEBBQADgY0AMIGJ
AoGBALHquUhI3i9mVy4+vgfKY2XKNIWKS8gJXbveYGhyMc1TPSVP+/1+SBFC2YIN
RLeuUO0/76I+FcazXSlQWrRkNBZgANB1m6E8FPhg0/MlO2csfullJFfOikV2MLJl
anqzJQwGfBNFF1iK2jKSDfQs+lKD3TTSRzpJw1wwnO2tr8cXAgMBAAGjSjBIMBEG
CWCGSAGG+EIBAQQEAwIFoDAzBglghkgBhvhCAQ0EJhYkT3BlblNTTCBHZW5lcmF0
ZWQgQ2xpZW50IENlcnRpZmljYXRlMA0GCSqGSIb3DQEBDQUAA4GBAJldRFBzxcUz
1U3yHd4SPTecltCMN6CNjgzqiwQd4vGp78JPkWtR3PznF6tBF0kAfq7fKOVC+FGp
0EBAooxDFRp50Kx3Wdldo5Owk1v8fj5FOinMlQXc9Ntrm8zGas16CnBYXhgzyx6K
ysK8Pdq5On9/RVya/OVvymcHvsHbk0ta
-----END CERTIFICATE-----
