Certificate:
    Data:
        Version: 3 (0x2)
        Serial Number: 380 (0x17c)
        Signature Algorithm: sha1WithRSAEncryption
        Issuer: C=UG, L=Tropic, O=Utopia, OU=Relaxation, CN=the bad CA
        Validity
            Not Before: Dec 15 22:24:27 2011 GMT
            Not After : Aug 23 22:24:27 2025 GMT
        Subject: C=UG, L=Tropic, O=Utopia, OU=Chilling, CN=bad client with bad DN
        Subject Public Key Info:
            Public Key Algorithm: rsaEncryption
            RSA Public Key: (1024 bit)
                Modulus (1024 bit):
                    00:eb:ad:d3:37:75:e0:ac:b0:80:42:27:74:d4:9f:
                    05:c5:4c:93:f1:0e:d0:d9:9c:44:81:a5:82:d5:0f:
                    21:4b:e7:ae:4a:e4:cf:9b:91:a3:95:fa:2c:6a:1d:
                    b7:b9:10:b4:8b:b1:1a:e0:a0:72:08:9a:ef:1d:31:
                    20:e9:d2:8d:ce:94:fd:18:93:29:14:37:67:9c:86:
                    a2:63:cc:9a:3b:4b:4b:03:7b:cd:9b:fd:0a:dd:2c:
                    7c:d5:fb:a8:14:ad:38:c2:49:52:c2:53:ac:b1:c8:
                    07:9e:b1:d2:d2:0b:a1:c1:b4:5f:e9:b7:fc:1e:9d:
                    b3:e3:b4:4a:af:36:ac:3b:95
                Exponent: 65537 (0x10001)
        X509v3 extensions:
            Netscape Cert Type: 
                SSL Client, S/MIME
            Netscape Comment: 
                OpenSSL Generated Client Certificate
    Signature Algorithm: sha1WithRSAEncryption
        64:4e:c1:01:36:5c:a3:5d:bf:5d:70:05:1d:fb:ef:05:fd:7f:
        36:6f:4f:09:da:0b:47:fc:3c:b6:8a:10:a4:b9:5f:d1:03:e6:
        eb:be:f8:75:2d:39:26:bc:f8:6e:fc:34:53:a7:5d:04:c3:50:
        87:a1:2d:ef:48:37:78:dc:d0:14:bc:d9:26:de:c9:27:89:33:
        15:98:9f:2f:5f:41:b1:8c:c5:0e:00:31:4e:cb:44:14:e6:fe:
        8e:a0:a2:bb:ab:9c:c6:73:f4:4e:19:8f:80:d8:f6:2f:35:ea:
        55:87:29:e5:f6:fd:ef:d7:96:0c:38:51:d5:ba:19:db:e3:55:
        5c:bd
-----BEGIN CERTIFICATE-----
MIICfTCCAeagAwIBAgICAXwwDQYJKoZIhvcNAQEFBQAwWTELMAkGA1UEBhMCVUcx
DzANBgNVBAcTBlRyb3BpYzEPMA0GA1UEChMGVXRvcGlhMRMwEQYDVQQLEwpSZWxh
eGF0aW9uMRMwEQYDVQQDEwp0aGUgYmFkIENBMB4XDTExMTIxNTIyMjQyN1oXDTI1
MDgyMzIyMjQyN1owYzELMAkGA1UEBhMCVUcxDzANBgNVBAcTBlRyb3BpYzEPMA0G
A1UEChMGVXRvcGlhMREwDwYDVQQLEwhDaGlsbGluZzEfMB0GA1UEAxMWYmFkIGNs
aWVudCB3aXRoIGJhZCBETjCBnzANBgkqhkiG9w0BAQEFAAOBjQAwgYkCgYEA663T
N3XgrLCAQid01J8FxUyT8Q7Q2ZxEgaWC1Q8hS+euSuTPm5Gjlfosah23uRC0i7Ea
4KByCJrvHTEg6dKNzpT9GJMpFDdnnIaiY8yaO0tLA3vNm/0K3Sx81fuoFK04wklS
wlOsscgHnrHS0guhwbRf6bf8Hp2z47RKrzasO5UCAwEAAaNKMEgwEQYJYIZIAYb4
QgEBBAQDAgWgMDMGCWCGSAGG+EIBDQQmFiRPcGVuU1NMIEdlbmVyYXRlZCBDbGll
bnQgQ2VydGlmaWNhdGUwDQYJKoZIhvcNAQEFBQADgYEAZE7BATZco12/XXAFHfvv
Bf1/Nm9PCdoLR/w8tooQpLlf0QPm6774dS05Jrz4bvw0U6ddBMNQh6Et70g3eNzQ
FLzZJt7JJ4kzFZifL19BsYzFDgAxTstEFOb+jqCiu6ucxnP0ThmPgNj2LzXqVYcp
5fb979eWDDhR1boZ2+NVXL0=
-----END CERTIFICATE-----
