Certificate:
    Data:
        Version: 3 (0x2)
        Serial Number: 381 (0x17d)
        Signature Algorithm: sha1WithRSAEncryption
        Issuer: C=UG, L=Tropic, O=Utopia, OU=Relaxation, CN=the expired CA
        Validity
            Not Before: Jan  1 00:00:00 2035 GMT
            Not After : Aug 23 22:24:38 2025 GMT
        Subject: C=UG, L=Tropic, O=Utopia, OU=Relaxation, CN=expired client future
        Subject Public Key Info:
            Public Key Algorithm: rsaEncryption
            RSA Public Key: (1024 bit)
                Modulus (1024 bit):
                    00:a5:e4:52:89:b7:2c:70:8c:b8:46:65:0f:ad:7a:
                    74:10:e8:f3:70:8c:81:6c:ba:b2:d7:bb:6e:9d:bf:
                    c4:29:ea:12:61:27:9a:19:e9:c7:1e:8b:84:17:4c:
                    83:19:ae:16:29:4a:0c:53:c3:84:7d:14:4f:fd:55:
                    a7:b7:b5:77:cd:d1:8c:a6:53:da:98:81:cc:50:71:
                    a2:73:f8:3f:ea:c4:f8:f1:f9:8d:32:8f:dd:3e:66:
                    e7:9a:dc:54:5b:86:9c:fb:a4:8d:ec:e6:fc:41:f6:
                    87:86:b2:17:d8:31:85:ae:7a:65:4f:12:2a:97:88:
                    62:38:4e:1d:04:a0:2d:bd:13
                Exponent: 65537 (0x10001)
        X509v3 extensions:
            Netscape Cert Type: 
                SSL Client, S/MIME
            Netscape Comment: 
                OpenSSL Generated Client Certificate
    Signature Algorithm: sha1WithRSAEncryption
        9b:e2:cf:fe:55:0b:00:ab:e1:a6:74:3a:ff:05:20:47:8e:1f:
        77:e6:d9:66:c7:a9:02:9f:b2:05:59:ea:4d:99:71:65:2e:c6:
        44:4f:bd:fa:e2:e4:fa:e2:c8:0a:42:61:40:51:4d:e7:3f:5f:
        00:39:d4:d5:6a:1b:8c:c0:4a:f5:ee:c0:07:b6:e5:29:10:37:
        71:ec:c1:6e:ac:56:39:4d:ad:80:80:f9:06:7e:f0:ff:6a:46:
        e9:4e:3f:26:40:80:54:c5:25:22:51:c4:a0:3a:2e:75:e8:c8:
        ce:8c:f4:5d:44:dd:68:e8:fa:51:85:e3:6e:0e:d6:0d:1e:6d:
        6b:34
-----BEGIN CERTIFICATE-----
MIICgjCCAeugAwIBAgICAX0wDQYJKoZIhvcNAQEFBQAwXTELMAkGA1UEBhMCVUcx
DzANBgNVBAcTBlRyb3BpYzEPMA0GA1UEChMGVXRvcGlhMRMwEQYDVQQLEwpSZWxh
eGF0aW9uMRcwFQYDVQQDEw50aGUgZXhwaXJlZCBDQTAeFw0zNTAxMDEwMDAwMDBa
Fw0yNTA4MjMyMjI0MzhaMGQxCzAJBgNVBAYTAlVHMQ8wDQYDVQQHEwZUcm9waWMx
DzANBgNVBAoTBlV0b3BpYTETMBEGA1UECxMKUmVsYXhhdGlvbjEeMBwGA1UEAxMV
ZXhwaXJlZCBjbGllbnQgZnV0dXJlMIGfMA0GCSqGSIb3DQEBAQUAA4GNADCBiQKB
gQCl5FKJtyxwjLhGZQ+tenQQ6PNwjIFsurLXu26dv8Qp6hJhJ5oZ6ccei4QXTIMZ
rhYpSgxTw4R9FE/9Vae3tXfN0YymU9qYgcxQcaJz+D/qxPjx+Y0yj90+Zuea3FRb
hpz7pI3s5vxB9oeGshfYMYWuemVPEiqXiGI4Th0EoC29EwIDAQABo0owSDARBglg
hkgBhvhCAQEEBAMCBaAwMwYJYIZIAYb4QgENBCYWJE9wZW5TU0wgR2VuZXJhdGVk
IENsaWVudCBDZXJ0aWZpY2F0ZTANBgkqhkiG9w0BAQUFAAOBgQCb4s/+VQsAq+Gm
dDr/BSBHjh935tlmx6kCn7IFWepNmXFlLsZET7364uT64sgKQmFAUU3nP18AOdTV
ahuMwEr17sAHtuUpEDdx7MFurFY5Ta2AgPkGfvD/akbpTj8mQIBUxSUiUcSgOi51
6MjOjPRdRN1o6PpRheNuDtYNHm1rNA==
-----END CERTIFICATE-----
