Certificate:
    Data:
        Version: 3 (0x2)
        Serial Number: 378 (0x17a)
        Signature Algorithm: md5WithRSAEncryption
        Issuer: C=UG, L=Tropic, O=Utopia, OU=Relaxation, CN=the expired CA
        Validity
            Not Before: Dec 16 17:38:09 2010 GMT
            Not After : May  3 17:38:09 2038 GMT
        Subject: C=UG, L=Tropic, O=Utopia, OU=Relaxation, CN=expired client revoked
        Subject Public Key Info:
            Public Key Algorithm: rsaEncryption
            RSA Public Key: (1024 bit)
                Modulus (1024 bit):
                    00:ab:c8:7f:14:6d:d0:52:f0:dd:f1:17:82:8b:5e:
                    3f:97:34:b6:1d:7a:27:54:3a:b4:00:75:cc:0f:a9:
                    5b:b9:aa:f5:dd:40:de:f6:d6:89:8f:bf:a0:f5:93:
                    8d:95:4a:1c:d4:45:7d:e9:37:bf:28:c4:0c:89:61:
                    4d:7d:ad:ed:b3:c2:dc:45:44:0b:e1:01:ba:69:39:
                    fe:5b:76:bf:ed:5d:04:13:0c:70:a5:73:54:10:2f:
                    2b:a3:d9:26:02:c2:c2:49:08:b2:c2:ab:72:5d:18:
                    7d:26:d2:c3:f8:ec:4c:2c:bc:5b:fc:95:49:1e:07:
                    09:28:28:a2:6d:b2:35:54:a9
                Exponent: 65537 (0x10001)
        X509v3 extensions:
            Netscape Cert Type: 
                SSL Client, S/MIME
            Netscape Comment: 
                OpenSSL Generated Client Certificate
    Signature Algorithm: md5WithRSAEncryption
        9d:62:ad:0d:dd:d2:f0:02:c9:17:29:48:a3:27:7d:55:95:20:
        1a:6e:12:f4:e7:29:3a:54:bc:84:45:b9:fd:dd:d2:2b:3f:14:
        b5:00:d3:05:5e:99:fa:72:90:e5:a8:04:21:6f:00:66:37:2a:
        97:44:2e:75:dc:b9:26:2c:5b:56:47:54:23:de:2e:2a:f9:45:
        7a:ab:84:ed:27:c5:f7:54:aa:85:8c:b6:09:7a:da:ff:64:e3:
        58:7d:1c:aa:1a:35:b0:25:ca:4c:32:e4:3f:3f:b4:19:80:b6:
        cb:78:1a:3e:2e:6b:87:95:71:cf:dd:0f:0c:0b:c8:78:43:5e:
        bb:75
-----BEGIN CERTIFICATE-----
MIICgzCCAeygAwIBAgICAXowDQYJKoZIhvcNAQEEBQAwXTELMAkGA1UEBhMCVUcx
DzANBgNVBAcTBlRyb3BpYzEPMA0GA1UEChMGVXRvcGlhMRMwEQYDVQQLEwpSZWxh
eGF0aW9uMRcwFQYDVQQDEw50aGUgZXhwaXJlZCBDQTAeFw0xMDEyMTYxNzM4MDla
Fw0zODA1MDMxNzM4MDlaMGUxCzAJBgNVBAYTAlVHMQ8wDQYDVQQHEwZUcm9waWMx
DzANBgNVBAoTBlV0b3BpYTETMBEGA1UECxMKUmVsYXhhdGlvbjEfMB0GA1UEAxMW
ZXhwaXJlZCBjbGllbnQgcmV2b2tlZDCBnzANBgkqhkiG9w0BAQEFAAOBjQAwgYkC
gYEAq8h/FG3QUvDd8ReCi14/lzS2HXonVDq0AHXMD6lbuar13UDe9taJj7+g9ZON
lUoc1EV96Te/KMQMiWFNfa3ts8LcRUQL4QG6aTn+W3a/7V0EEwxwpXNUEC8ro9km
AsLCSQiywqtyXRh9JtLD+OxMLLxb/JVJHgcJKCiibbI1VKkCAwEAAaNKMEgwEQYJ
YIZIAYb4QgEBBAQDAgWgMDMGCWCGSAGG+EIBDQQmFiRPcGVuU1NMIEdlbmVyYXRl
ZCBDbGllbnQgQ2VydGlmaWNhdGUwDQYJKoZIhvcNAQEEBQADgYEAnWKtDd3S8ALJ
FylIoyd9VZUgGm4S9OcpOlS8hEW5/d3SKz8UtQDTBV6Z+nKQ5agEIW8AZjcql0Qu
ddy5JixbVkdUI94uKvlFequE7SfF91SqhYy2CXra/2TjWH0cqho1sCXKTDLkPz+0
GYC2y3gaPi5rh5Vxz90PDAvIeENeu3U=
-----END CERTIFICATE-----
