Certificate:
    Data:
        Version: 3 (0x2)
        Serial Number: 374 (0x176)
        Signature Algorithm: md5WithRSAEncryption
        Issuer: C=UG, L=Tropic, O=Utopia, OU=Relaxation, CN=the expired CA
        Validity
            Not Before: Dec 16 17:38:06 2010 GMT
            Not After : May  3 17:38:06 2038 GMT
        Subject: C=UG, L=Tropic, O=Utopia, OU=Relaxation, CN=expired client
        Subject Public Key Info:
            Public Key Algorithm: rsaEncryption
            RSA Public Key: (1024 bit)
                Modulus (1024 bit):
                    00:a7:ea:2e:c1:c1:c3:09:4b:2a:38:40:c1:29:34:
                    90:35:dc:4e:10:73:fd:47:e3:87:89:16:67:36:8b:
                    e7:dc:c4:67:5a:9c:86:76:f4:1f:88:31:c7:eb:ac:
                    a6:b9:9d:43:44:ed:1e:05:43:c3:9c:7a:ad:1f:30:
                    46:99:10:55:a9:73:e3:fe:e9:45:0c:a4:d6:b0:d8:
                    ae:03:5c:a5:9e:b3:b7:b3:f7:66:3d:4c:20:90:b0:
                    73:5e:8b:61:9f:46:c2:da:af:07:9f:38:cb:4f:33:
                    90:a6:33:14:6b:26:02:68:f0:c5:4a:9b:de:0f:d3:
                    17:5c:a8:12:c2:65:87:59:cf
                Exponent: 65537 (0x10001)
        X509v3 extensions:
            Netscape Cert Type: 
                SSL Client, S/MIME
            Netscape Comment: 
                OpenSSL Generated Client Certificate
    Signature Algorithm: md5WithRSAEncryption
        65:43:e0:fe:26:4a:2b:7c:98:5b:3a:4f:56:ef:ef:fb:60:9e:
        e3:66:bb:66:fb:d2:80:24:9a:b7:24:44:d3:e3:fe:52:c5:bb:
        b0:db:15:76:e2:04:e6:ff:86:2c:6c:c9:bf:87:24:e0:7f:6e:
        a9:64:92:b4:6e:1a:11:0d:a5:c3:a1:f1:73:06:f1:88:52:86:
        c5:ec:0b:75:a0:d6:e2:70:72:40:33:04:39:19:2a:b5:b7:ab:
        cf:11:83:6c:9b:30:85:18:18:32:a6:b5:94:82:90:b2:12:71:
        88:d2:18:ee:1c:d9:e9:3a:d6:e1:c8:90:cf:ff:f9:d6:86:86:
        2d:5e
-----BEGIN CERTIFICATE-----
MIICezCCAeSgAwIBAgICAXYwDQYJKoZIhvcNAQEEBQAwXTELMAkGA1UEBhMCVUcx
DzANBgNVBAcTBlRyb3BpYzEPMA0GA1UEChMGVXRvcGlhMRMwEQYDVQQLEwpSZWxh
eGF0aW9uMRcwFQYDVQQDEw50aGUgZXhwaXJlZCBDQTAeFw0xMDEyMTYxNzM4MDZa
Fw0zODA1MDMxNzM4MDZaMF0xCzAJBgNVBAYTAlVHMQ8wDQYDVQQHEwZUcm9waWMx
DzANBgNVBAoTBlV0b3BpYTETMBEGA1UECxMKUmVsYXhhdGlvbjEXMBUGA1UEAxMO
ZXhwaXJlZCBjbGllbnQwgZ8wDQYJKoZIhvcNAQEBBQADgY0AMIGJAoGBAKfqLsHB
wwlLKjhAwSk0kDXcThBz/Ufjh4kWZzaL59zEZ1qchnb0H4gxx+usprmdQ0TtHgVD
w5x6rR8wRpkQValz4/7pRQyk1rDYrgNcpZ6zt7P3Zj1MIJCwc16LYZ9GwtqvB584
y08zkKYzFGsmAmjwxUqb3g/TF1yoEsJlh1nPAgMBAAGjSjBIMBEGCWCGSAGG+EIB
AQQEAwIFoDAzBglghkgBhvhCAQ0EJhYkT3BlblNTTCBHZW5lcmF0ZWQgQ2xpZW50
IENlcnRpZmljYXRlMA0GCSqGSIb3DQEBBAUAA4GBAGVD4P4mSit8mFs6T1bv7/tg
nuNmu2b70oAkmrckRNPj/lLFu7DbFXbiBOb/hixsyb+HJOB/bqlkkrRuGhENpcOh
8XMG8YhShsXsC3Wg1uJwckAzBDkZKrW3q88Rg2ybMIUYGDKmtZSCkLIScYjSGO4c
2ek61uHIkM//+daGhi1e
-----END CERTIFICATE-----
