Certificate:
    Data:
        Version: 3 (0x2)
        Serial Number: 376 (0x178)
        Signature Algorithm: md5WithRSAEncryption
        Issuer: C=UG, L=Tropic, O=Utopia, OU=Relaxation, CN=the expired CA
        Validity
            Not Before: Jan  1 00:00:00 2035 GMT
            Not After : May  3 17:38:08 2038 GMT
        Subject: C=UG, L=Tropic, O=Utopia, OU=Relaxation, CN=expired client future
        Subject Public Key Info:
            Public Key Algorithm: rsaEncryption
            RSA Public Key: (1024 bit)
                Modulus (1024 bit):
                    00:a0:fb:b2:c4:87:c0:46:b4:33:27:3d:d5:a0:01:
                    12:a0:fe:33:ba:2a:72:1b:b0:04:e3:5a:94:ca:41:
                    4e:26:d6:e1:9c:6e:76:7d:b0:05:21:36:ae:2b:c3:
                    7f:b1:b8:b8:cd:05:ce:b8:99:03:ad:9c:0f:9a:33:
                    27:19:82:ec:31:cb:ab:97:7c:13:f8:f5:4f:77:1c:
                    c3:1b:9b:13:e1:c3:3a:e7:77:59:57:26:86:e3:56:
                    29:21:e9:83:f0:3f:40:e4:23:f2:c1:91:26:49:69:
                    21:cc:80:ff:1e:35:fd:87:56:74:c8:f3:cd:d2:30:
                    f6:37:85:19:4c:5c:c9:f2:b9
                Exponent: 65537 (0x10001)
        X509v3 extensions:
            Netscape Cert Type: 
                SSL Client, S/MIME
            Netscape Comment: 
                OpenSSL Generated Client Certificate
    Signature Algorithm: md5WithRSAEncryption
        5e:e6:2c:0e:a7:28:95:3e:83:67:47:10:bf:40:90:0b:86:d0:
        29:0d:65:60:12:18:de:56:d5:cb:bf:be:52:1f:3d:8a:8f:32:
        fa:50:b8:18:f6:27:af:00:62:72:e5:ec:dd:9a:29:04:d8:0a:
        1f:7f:ef:5d:9b:b2:a1:d8:6f:aa:40:17:40:63:0e:cd:13:9f:
        d7:6c:af:40:b3:a6:91:7c:46:25:6d:e6:71:2e:dd:bd:e8:bf:
        dc:91:aa:dd:c6:70:1a:e6:d9:b4:0b:ff:a1:a4:0d:d5:77:3e:
        4a:5e:72:db:6a:bf:e7:c4:99:1e:58:21:a1:f8:31:e7:31:e8:
        8a:81
-----BEGIN CERTIFICATE-----
MIICgjCCAeugAwIBAgICAXgwDQYJKoZIhvcNAQEEBQAwXTELMAkGA1UEBhMCVUcx
DzANBgNVBAcTBlRyb3BpYzEPMA0GA1UEChMGVXRvcGlhMRMwEQYDVQQLEwpSZWxh
eGF0aW9uMRcwFQYDVQQDEw50aGUgZXhwaXJlZCBDQTAeFw0zNTAxMDEwMDAwMDBa
Fw0zODA1MDMxNzM4MDhaMGQxCzAJBgNVBAYTAlVHMQ8wDQYDVQQHEwZUcm9waWMx
DzANBgNVBAoTBlV0b3BpYTETMBEGA1UECxMKUmVsYXhhdGlvbjEeMBwGA1UEAxMV
ZXhwaXJlZCBjbGllbnQgZnV0dXJlMIGfMA0GCSqGSIb3DQEBAQUAA4GNADCBiQKB
gQCg+7LEh8BGtDMnPdWgARKg/jO6KnIbsATjWpTKQU4m1uGcbnZ9sAUhNq4rw3+x
uLjNBc64mQOtnA+aMycZguwxy6uXfBP49U93HMMbmxPhwzrnd1lXJobjVikh6YPw
P0DkI/LBkSZJaSHMgP8eNf2HVnTI883SMPY3hRlMXMnyuQIDAQABo0owSDARBglg
hkgBhvhCAQEEBAMCBaAwMwYJYIZIAYb4QgENBCYWJE9wZW5TU0wgR2VuZXJhdGVk
IENsaWVudCBDZXJ0aWZpY2F0ZTANBgkqhkiG9w0BAQQFAAOBgQBe5iwOpyiVPoNn
RxC/QJALhtApDWVgEhjeVtXLv75SHz2KjzL6ULgY9ievAGJy5ezdmikE2Aoff+9d
m7Kh2G+qQBdAYw7NE5/XbK9As6aRfEYlbeZxLt296L/ckardxnAa5tm0C/+hpA3V
dz5KXnLbar/nxJkeWCGh+DHnMeiKgQ==
-----END CERTIFICATE-----
