Certificate:
    Data:
        Version: 3 (0x2)
        Serial Number: 379 (0x17b)
        Signature Algorithm: sha512WithRSAEncryption
        Issuer: C=UG, L=Tropic, O=Utopia, OU=Relaxation, CN=the expired CA
        Validity
            Not Before: Dec 15 22:24:38 2011 GMT
            Not After : Aug 23 22:24:38 2025 GMT
        Subject: C=UG, L=Tropic, O=Utopia, OU=Relaxation, CN=expired client with sha512 hash
        Subject Public Key Info:
            Public Key Algorithm: rsaEncryption
            RSA Public Key: (1024 bit)
                Modulus (1024 bit):
                    00:c3:1d:90:55:fc:24:c2:e8:ba:f3:08:f1:0c:72:
                    ff:63:ba:93:a3:9d:35:3e:6f:e7:9b:fb:d2:64:71:
                    6b:6e:c9:47:5c:da:56:62:f1:c8:0b:9d:6f:3c:2c:
                    49:a3:0c:a2:62:58:92:b5:01:e8:a2:46:f7:10:d7:
                    39:8a:e7:36:9a:bf:81:80:a6:31:06:73:b0:c1:35:
                    39:82:af:f7:4e:cc:53:d3:19:57:2f:cf:32:bc:62:
                    3b:59:c4:1a:1a:1a:a5:19:16:75:63:e8:30:de:8f:
                    c0:48:18:68:fb:b0:ff:de:12:60:9a:35:89:1d:4d:
                    a2:37:63:8c:0b:95:d0:1d:0b
                Exponent: 65537 (0x10001)
        X509v3 extensions:
            Netscape Cert Type: 
                SSL Client, S/MIME
            Netscape Comment: 
                OpenSSL Generated Client Certificate
    Signature Algorithm: sha512WithRSAEncryption
        68:af:20:64:4c:80:a0:9c:59:dc:5e:e3:8d:02:e4:77:4b:32:
        70:ea:20:79:46:e2:bc:22:cc:41:00:0d:88:e2:69:d2:83:52:
        b3:29:6d:2b:e2:11:50:46:d9:bd:8d:12:1e:cd:b1:60:68:6b:
        3e:17:df:5c:a7:73:56:35:7b:46:f7:dc:12:33:77:af:1e:1f:
        d7:7a:e6:97:ee:ac:e8:51:11:44:7c:8f:10:cd:ea:5b:54:19:
        08:f4:97:94:63:a2:62:1f:fb:0c:0f:04:bf:e4:15:1b:2c:2c:
        e9:d0:9c:e9:a0:88:cd:ee:c0:01:ae:0c:e5:0f:88:4d:54:34:
        03:92
-----BEGIN CERTIFICATE-----
MIICjDCCAfWgAwIBAgICAXswDQYJKoZIhvcNAQENBQAwXTELMAkGA1UEBhMCVUcx
DzANBgNVBAcTBlRyb3BpYzEPMA0GA1UEChMGVXRvcGlhMRMwEQYDVQQLEwpSZWxh
eGF0aW9uMRcwFQYDVQQDEw50aGUgZXhwaXJlZCBDQTAeFw0xMTEyMTUyMjI0Mzha
Fw0yNTA4MjMyMjI0MzhaMG4xCzAJBgNVBAYTAlVHMQ8wDQYDVQQHEwZUcm9waWMx
DzANBgNVBAoTBlV0b3BpYTETMBEGA1UECxMKUmVsYXhhdGlvbjEoMCYGA1UEAxMf
ZXhwaXJlZCBjbGllbnQgd2l0aCBzaGE1MTIgaGFzaDCBnzANBgkqhkiG9w0BAQEF
AAOBjQAwgYkCgYEAwx2QVfwkwui68wjxDHL/Y7qTo501Pm/nm/vSZHFrbslHXNpW
YvHIC51vPCxJowyiYliStQHookb3ENc5iuc2mr+BgKYxBnOwwTU5gq/3TsxT0xlX
L88yvGI7WcQaGhqlGRZ1Y+gw3o/ASBho+7D/3hJgmjWJHU2iN2OMC5XQHQsCAwEA
AaNKMEgwEQYJYIZIAYb4QgEBBAQDAgWgMDMGCWCGSAGG+EIBDQQmFiRPcGVuU1NM
IEdlbmVyYXRlZCBDbGllbnQgQ2VydGlmaWNhdGUwDQYJKoZIhvcNAQENBQADgYEA
aK8gZEyAoJxZ3F7jjQLkd0sycOogeUbivCLMQQANiOJp0oNSsyltK+IRUEbZvY0S
Hs2xYGhrPhffXKdzVjV7RvfcEjN3rx4f13rml+6s6FERRHyPEM3qW1QZCPSXlGOi
Yh/7DA8Ev+QVGyws6dCc6aCIze7AAa4M5Q+ITVQ0A5I=
-----END CERTIFICATE-----
