Certificate:
    Data:
        Version: 3 (0x2)
        Serial Number: 375 (0x177)
        Signature Algorithm: md5WithRSAEncryption
        Issuer: C=UG, L=Tropic, O=Utopia, OU=Relaxation, CN=the expired CA
        Validity
            Not Before: Dec 15 22:24:36 2011 GMT
            Not After : Aug 23 22:24:36 2025 GMT
        Subject: C=UG, L=Tropic, O=Utopia, OU=Relaxation, CN=expired client with md5 hash
        Subject Public Key Info:
            Public Key Algorithm: rsaEncryption
            RSA Public Key: (1024 bit)
                Modulus (1024 bit):
                    00:c4:43:52:67:dc:37:f1:47:44:dc:c3:73:46:f0:
                    1b:4a:c0:9f:10:f3:e9:96:1f:1c:11:a9:55:e1:41:
                    c9:4a:75:10:f6:34:6b:b0:95:cb:2a:64:24:a4:09:
                    6b:09:66:44:0a:07:3b:96:ef:87:0a:1d:fe:bc:62:
                    1d:73:7d:9a:79:8f:e0:de:90:62:16:40:86:e0:d2:
                    73:da:ed:6e:6e:57:25:81:59:2c:24:02:f6:46:ce:
                    bc:0a:44:59:28:f4:3c:64:1a:90:6c:5f:0f:9d:ee:
                    49:d8:6c:14:1d:44:d4:bc:a3:66:4b:4f:2d:3d:38:
                    23:1c:a0:0e:4b:ff:9e:3f:b3
                Exponent: 65537 (0x10001)
        X509v3 extensions:
            Netscape Cert Type: 
                SSL Client, S/MIME
            Netscape Comment: 
                OpenSSL Generated Client Certificate
    Signature Algorithm: md5WithRSAEncryption
        86:09:26:1b:91:a1:b3:73:cf:dd:fe:2e:55:d6:5a:ed:9b:a7:
        af:b6:33:95:1c:bf:05:cc:32:bf:78:a3:6d:b9:be:21:38:e1:
        50:ce:0b:eb:ee:99:ae:bc:b4:77:5b:e6:b7:4f:b6:81:6e:42:
        7d:50:34:49:a4:99:81:5e:e3:6c:f8:fe:d3:4f:30:31:9a:12:
        5f:0f:dc:e0:2f:89:86:1b:e0:33:b2:0e:91:74:67:34:a0:8e:
        e2:bb:53:25:9c:92:8a:3a:37:7b:d6:0e:95:61:3d:7e:06:f6:
        df:2d:89:9b:a3:fb:5f:14:ca:f7:40:01:58:4f:00:51:09:fd:
        59:06
-----BEGIN CERTIFICATE-----
MIICiTCCAfKgAwIBAgICAXcwDQYJKoZIhvcNAQEEBQAwXTELMAkGA1UEBhMCVUcx
DzANBgNVBAcTBlRyb3BpYzEPMA0GA1UEChMGVXRvcGlhMRMwEQYDVQQLEwpSZWxh
eGF0aW9uMRcwFQYDVQQDEw50aGUgZXhwaXJlZCBDQTAeFw0xMTEyMTUyMjI0MzZa
Fw0yNTA4MjMyMjI0MzZaMGsxCzAJBgNVBAYTAlVHMQ8wDQYDVQQHEwZUcm9waWMx
DzANBgNVBAoTBlV0b3BpYTETMBEGA1UECxMKUmVsYXhhdGlvbjElMCMGA1UEAxMc
ZXhwaXJlZCBjbGllbnQgd2l0aCBtZDUgaGFzaDCBnzANBgkqhkiG9w0BAQEFAAOB
jQAwgYkCgYEAxENSZ9w38UdE3MNzRvAbSsCfEPPplh8cEalV4UHJSnUQ9jRrsJXL
KmQkpAlrCWZECgc7lu+HCh3+vGIdc32aeY/g3pBiFkCG4NJz2u1ublclgVksJAL2
Rs68CkRZKPQ8ZBqQbF8Pne5J2GwUHUTUvKNmS08tPTgjHKAOS/+eP7MCAwEAAaNK
MEgwEQYJYIZIAYb4QgEBBAQDAgWgMDMGCWCGSAGG+EIBDQQmFiRPcGVuU1NMIEdl
bmVyYXRlZCBDbGllbnQgQ2VydGlmaWNhdGUwDQYJKoZIhvcNAQEEBQADgYEAhgkm
G5Ghs3PP3f4uVdZa7Zunr7YzlRy/Bcwyv3ijbbm+ITjhUM4L6+6Zrry0d1vmt0+2
gW5CfVA0SaSZgV7jbPj+008wMZoSXw/c4C+JhhvgM7IOkXRnNKCO4rtTJZySijo3
e9YOlWE9fgb23y2Jm6P7XxTK90ABWE8AUQn9WQY=
-----END CERTIFICATE-----
