Certificate:
    Data:
        Version: 3 (0x2)
        Serial Number: 377 (0x179)
        Signature Algorithm: md5WithRSAEncryption
        Issuer: C=UG, L=Tropic, O=Utopia, OU=Relaxation, CN=the expired CA
        Validity
            Not Before: Dec 16 17:38:09 2010 GMT
            Not After : Dec 15 17:38:09 2010 GMT
        Subject: C=UG, L=Tropic, O=Utopia, OU=Relaxation, CN=expired client expired
        Subject Public Key Info:
            Public Key Algorithm: rsaEncryption
            RSA Public Key: (1024 bit)
                Modulus (1024 bit):
                    00:c6:d8:24:10:3d:d1:ce:df:9d:f4:6e:fa:da:c7:
                    3b:b4:31:ff:f4:79:8c:5d:e9:d2:21:0f:6c:0f:a8:
                    41:1e:98:80:84:3a:07:6f:c1:81:40:de:0e:f5:19:
                    f8:8b:7b:0d:cb:6c:33:6e:2f:77:15:a7:a8:b3:17:
                    e7:c0:9c:e9:4a:fe:e5:27:a5:46:ab:53:a0:12:41:
                    d2:f3:6e:6c:be:10:c2:30:96:95:3b:25:1c:6e:42:
                    cd:a1:fd:5e:a5:73:4f:b0:f3:0a:c2:83:dc:ad:1d:
                    fa:ff:31:63:e1:d8:95:a4:e4:3b:7b:47:77:d4:63:
                    46:55:85:52:b8:e0:48:bd:3f
                Exponent: 65537 (0x10001)
        X509v3 extensions:
            Netscape Cert Type: 
                SSL Client, S/MIME
            Netscape Comment: 
                OpenSSL Generated Client Certificate
    Signature Algorithm: md5WithRSAEncryption
        30:4d:68:24:3f:1a:b9:62:b5:64:ff:ab:ae:fd:ec:16:9b:41:
        b9:88:cb:b5:66:a5:3b:ff:b2:91:f6:52:ae:70:d5:73:90:9e:
        0a:22:ed:d9:4a:60:59:b8:0a:9f:81:b4:1a:44:69:d3:03:b1:
        50:39:0f:b7:72:a3:47:19:16:ee:81:2c:72:22:38:9f:57:33:
        d1:76:75:55:c4:82:d0:89:de:29:9b:25:21:37:1d:d5:16:9e:
        95:01:a1:44:d0:55:03:a1:f1:5b:eb:1d:fb:c7:04:b5:f5:5b:
        3f:c0:52:03:3f:4e:a2:99:a0:14:c7:73:e1:cf:83:1e:ac:c7:
        07:f7
-----BEGIN CERTIFICATE-----
MIICgzCCAeygAwIBAgICAXkwDQYJKoZIhvcNAQEEBQAwXTELMAkGA1UEBhMCVUcx
DzANBgNVBAcTBlRyb3BpYzEPMA0GA1UEChMGVXRvcGlhMRMwEQYDVQQLEwpSZWxh
eGF0aW9uMRcwFQYDVQQDEw50aGUgZXhwaXJlZCBDQTAeFw0xMDEyMTYxNzM4MDla
Fw0xMDEyMTUxNzM4MDlaMGUxCzAJBgNVBAYTAlVHMQ8wDQYDVQQHEwZUcm9waWMx
DzANBgNVBAoTBlV0b3BpYTETMBEGA1UECxMKUmVsYXhhdGlvbjEfMB0GA1UEAxMW
ZXhwaXJlZCBjbGllbnQgZXhwaXJlZDCBnzANBgkqhkiG9w0BAQEFAAOBjQAwgYkC
gYEAxtgkED3Rzt+d9G762sc7tDH/9HmMXenSIQ9sD6hBHpiAhDoHb8GBQN4O9Rn4
i3sNy2wzbi93FaeosxfnwJzpSv7lJ6VGq1OgEkHS825svhDCMJaVOyUcbkLNof1e
pXNPsPMKwoPcrR36/zFj4diVpOQ7e0d31GNGVYVSuOBIvT8CAwEAAaNKMEgwEQYJ
YIZIAYb4QgEBBAQDAgWgMDMGCWCGSAGG+EIBDQQmFiRPcGVuU1NMIEdlbmVyYXRl
ZCBDbGllbnQgQ2VydGlmaWNhdGUwDQYJKoZIhvcNAQEEBQADgYEAME1oJD8auWK1
ZP+rrv3sFptBuYjLtWalO/+ykfZSrnDVc5CeCiLt2UpgWbgKn4G0GkRp0wOxUDkP
t3KjRxkW7oEsciI4n1cz0XZ1VcSC0IneKZslITcd1RaelQGhRNBVA6HxW+sd+8cE
tfVbP8BSAz9OopmgFMdz4c+DHqzHB/c=
-----END CERTIFICATE-----
