Certificate:
    Data:
        Version: 3 (0x2)
        Serial Number: 375 (0x177)
        Signature Algorithm: md5WithRSAEncryption
        Issuer: C=UG, L=Tropic, O=Utopia, OU=Relaxation, CN=the expired CA
        Validity
            Not Before: Dec 16 17:38:08 2010 GMT
            Not After : May  3 17:38:08 2038 GMT
        Subject: C=UG, L=Tropic, O=Utopia, OU=Chilling, CN=expired client with bad DN
        Subject Public Key Info:
            Public Key Algorithm: rsaEncryption
            RSA Public Key: (1024 bit)
                Modulus (1024 bit):
                    00:d3:73:bf:a2:2f:49:36:30:04:72:60:03:8c:dc:
                    95:82:76:89:1a:04:47:d0:b6:53:5c:f6:ca:03:f5:
                    d2:17:fb:9b:7b:72:aa:be:49:4a:89:47:e1:93:78:
                    aa:fd:a7:34:77:c9:01:55:bd:ff:52:6a:9d:b9:14:
                    36:0b:32:2e:46:fc:ab:e5:47:67:73:73:1a:6f:e9:
                    71:41:d1:4a:c7:27:42:e3:12:5d:59:ad:12:62:37:
                    7c:a2:3c:09:fc:6e:4b:e4:3a:97:01:a2:ab:73:a0:
                    d6:d2:d1:c3:0f:15:b2:e8:9f:0c:b9:15:49:1c:25:
                    64:9f:a4:b0:8f:4f:1d:11:73
                Exponent: 65537 (0x10001)
        X509v3 extensions:
            Netscape Cert Type: 
                SSL Client, S/MIME
            Netscape Comment: 
                OpenSSL Generated Client Certificate
    Signature Algorithm: md5WithRSAEncryption
        60:e5:1d:cf:f5:a6:5d:9f:5d:1e:e7:2e:37:4a:3c:3b:22:62:
        c0:54:a4:34:51:04:78:8a:1f:c6:a6:bf:4d:10:c4:88:9b:33:
        81:cd:05:8a:05:17:ea:e8:99:58:76:b7:c5:37:61:73:16:bf:
        c1:d5:91:88:fe:aa:27:29:1d:4f:b3:30:3f:83:a4:c5:47:7f:
        fe:21:df:58:9a:7e:d6:7a:f9:20:e2:c3:26:46:f4:8a:84:d1:
        a0:c6:28:4f:18:ec:2d:45:55:9a:42:4f:4d:7f:3b:93:e2:30:
        95:04:3a:54:a1:40:08:a4:38:e8:a9:e5:6b:2d:50:69:e2:7a:
        3a:f4
-----BEGIN CERTIFICATE-----
MIIChTCCAe6gAwIBAgICAXcwDQYJKoZIhvcNAQEEBQAwXTELMAkGA1UEBhMCVUcx
DzANBgNVBAcTBlRyb3BpYzEPMA0GA1UEChMGVXRvcGlhMRMwEQYDVQQLEwpSZWxh
eGF0aW9uMRcwFQYDVQQDEw50aGUgZXhwaXJlZCBDQTAeFw0xMDEyMTYxNzM4MDha
Fw0zODA1MDMxNzM4MDhaMGcxCzAJBgNVBAYTAlVHMQ8wDQYDVQQHEwZUcm9waWMx
DzANBgNVBAoTBlV0b3BpYTERMA8GA1UECxMIQ2hpbGxpbmcxIzAhBgNVBAMTGmV4
cGlyZWQgY2xpZW50IHdpdGggYmFkIEROMIGfMA0GCSqGSIb3DQEBAQUAA4GNADCB
iQKBgQDTc7+iL0k2MARyYAOM3JWCdokaBEfQtlNc9soD9dIX+5t7cqq+SUqJR+GT
eKr9pzR3yQFVvf9Sap25FDYLMi5G/KvlR2dzcxpv6XFB0UrHJ0LjEl1ZrRJiN3yi
PAn8bkvkOpcBoqtzoNbS0cMPFbLonwy5FUkcJWSfpLCPTx0RcwIDAQABo0owSDAR
BglghkgBhvhCAQEEBAMCBaAwMwYJYIZIAYb4QgENBCYWJE9wZW5TU0wgR2VuZXJh
dGVkIENsaWVudCBDZXJ0aWZpY2F0ZTANBgkqhkiG9w0BAQQFAAOBgQBg5R3P9aZd
n10e5y43Sjw7ImLAVKQ0UQR4ih/Gpr9NEMSImzOBzQWKBRfq6JlYdrfFN2FzFr/B
1ZGI/qonKR1PszA/g6TFR3/+Id9Ymn7Wevkg4sMmRvSKhNGgxihPGOwtRVWaQk9N
fzuT4jCVBDpUoUAIpDjoqeVrLVBp4no69A==
-----END CERTIFICATE-----
