Certificate:
    Data:
        Version: 3 (0x2)
        Serial Number: 377 (0x179)
        Signature Algorithm: sha256WithRSAEncryption
        Issuer: C=UG, L=Tropic, O=Utopia, OU=Relaxation, CN=the expired CA
        Validity
            Not Before: Dec 15 22:24:37 2011 GMT
            Not After : Aug 23 22:24:37 2025 GMT
        Subject: C=UG, L=Tropic, O=Utopia, OU=Relaxation, CN=expired client with sha256 hash
        Subject Public Key Info:
            Public Key Algorithm: rsaEncryption
            RSA Public Key: (1024 bit)
                Modulus (1024 bit):
                    00:b0:23:64:da:0d:e3:08:8f:f7:b1:23:62:83:8d:
                    68:08:c0:3c:99:c9:6d:2f:29:25:8e:dc:21:b6:1b:
                    1c:e0:c6:e8:fa:f7:21:f4:cb:63:aa:4e:f0:b3:5e:
                    c6:51:6b:2a:da:cc:14:57:67:36:40:eb:da:be:2d:
                    29:0c:dd:4f:93:a0:3f:70:52:4b:26:2f:2d:fc:25:
                    0d:ad:35:23:72:f8:21:93:ac:c7:66:16:8d:b3:5f:
                    44:74:b6:a0:8d:c3:a3:96:f5:73:b0:1c:33:cc:0a:
                    d7:0c:6b:09:33:10:89:bb:71:b1:26:ae:ef:90:02:
                    b5:81:c1:c2:29:0e:12:5e:2d
                Exponent: 65537 (0x10001)
        X509v3 extensions:
            Netscape Cert Type: 
                SSL Client, S/MIME
            Netscape Comment: 
                OpenSSL Generated Client Certificate
    Signature Algorithm: sha256WithRSAEncryption
        14:c2:0b:da:b1:8d:ef:09:60:ad:b9:17:e0:81:37:c1:4e:c4:
        b1:d1:a4:6b:2c:c5:4d:f5:2d:e9:26:9a:b5:49:81:18:7d:15:
        2f:11:81:8a:74:14:e9:97:bc:a3:f9:b6:e7:97:c4:35:3b:d1:
        a8:0c:55:47:80:95:ee:a4:d7:47:94:53:40:c3:cf:80:4a:16:
        41:f0:f8:17:67:1d:c0:ee:1f:32:93:f1:c6:1b:36:55:48:bd:
        54:37:7b:52:43:3a:37:77:ad:9e:d0:86:40:41:1d:b8:3e:e9:
        5e:72:3c:f1:7e:da:52:b3:62:c2:f6:12:bd:89:41:cf:40:59:
        75:3f
-----BEGIN CERTIFICATE-----
MIICjDCCAfWgAwIBAgICAXkwDQYJKoZIhvcNAQELBQAwXTELMAkGA1UEBhMCVUcx
DzANBgNVBAcTBlRyb3BpYzEPMA0GA1UEChMGVXRvcGlhMRMwEQYDVQQLEwpSZWxh
eGF0aW9uMRcwFQYDVQQDEw50aGUgZXhwaXJlZCBDQTAeFw0xMTEyMTUyMjI0Mzda
Fw0yNTA4MjMyMjI0MzdaMG4xCzAJBgNVBAYTAlVHMQ8wDQYDVQQHEwZUcm9waWMx
DzANBgNVBAoTBlV0b3BpYTETMBEGA1UECxMKUmVsYXhhdGlvbjEoMCYGA1UEAxMf
ZXhwaXJlZCBjbGllbnQgd2l0aCBzaGEyNTYgaGFzaDCBnzANBgkqhkiG9w0BAQEF
AAOBjQAwgYkCgYEAsCNk2g3jCI/3sSNig41oCMA8mcltLykljtwhthsc4Mbo+vch
9Mtjqk7ws17GUWsq2swUV2c2QOvavi0pDN1Pk6A/cFJLJi8t/CUNrTUjcvghk6zH
ZhaNs19EdLagjcOjlvVzsBwzzArXDGsJMxCJu3GxJq7vkAK1gcHCKQ4SXi0CAwEA
AaNKMEgwEQYJYIZIAYb4QgEBBAQDAgWgMDMGCWCGSAGG+EIBDQQmFiRPcGVuU1NM
IEdlbmVyYXRlZCBDbGllbnQgQ2VydGlmaWNhdGUwDQYJKoZIhvcNAQELBQADgYEA
FMIL2rGN7wlgrbkX4IE3wU7EsdGkayzFTfUt6SaatUmBGH0VLxGBinQU6Ze8o/m2
55fENTvRqAxVR4CV7qTXR5RTQMPPgEoWQfD4F2cdwO4fMpPxxhs2VUi9VDd7UkM6
N3etntCGQEEduD7pXnI88X7aUrNiwvYSvYlBz0BZdT8=
-----END CERTIFICATE-----
