Certificate:
    Data:
        Version: 3 (0x2)
        Serial Number: 378 (0x17a)
        Signature Algorithm: sha384WithRSAEncryption
        Issuer: C=UG, L=Tropic, O=Utopia, OU=Relaxation, CN=the expired CA
        Validity
            Not Before: Dec 15 22:24:37 2011 GMT
            Not After : Aug 23 22:24:37 2025 GMT
        Subject: C=UG, L=Tropic, O=Utopia, OU=Relaxation, CN=expired client with sha384 hash
        Subject Public Key Info:
            Public Key Algorithm: rsaEncryption
            RSA Public Key: (1024 bit)
                Modulus (1024 bit):
                    00:b0:11:b1:7e:38:09:a2:27:f6:16:68:fd:08:ca:
                    a0:87:af:bc:c5:48:03:5a:3b:dd:50:11:78:57:01:
                    92:3c:92:6e:c0:b7:87:b8:55:2f:f5:70:f7:a3:13:
                    c8:d4:9b:3b:f4:33:5b:d1:d7:97:9d:33:26:e9:fe:
                    5e:61:26:a5:ea:6f:58:5f:0e:c4:8f:87:4a:e9:6f:
                    36:f2:a1:8e:2a:e8:bc:6d:03:c9:48:b1:b0:dd:c6:
                    df:1c:a5:9d:a3:33:fa:56:b3:9e:8e:41:47:19:14:
                    ae:b0:4d:ae:53:ae:f7:11:de:67:1a:87:1c:2b:7c:
                    b1:15:0b:c8:cd:b8:2c:3b:bd
                Exponent: 65537 (0x10001)
        X509v3 extensions:
            Netscape Cert Type: 
                SSL Client, S/MIME
            Netscape Comment: 
                OpenSSL Generated Client Certificate
    Signature Algorithm: sha384WithRSAEncryption
        75:46:3d:5c:a9:95:f4:66:5b:65:5c:6c:14:37:51:f2:30:45:
        4f:2c:a6:0b:b0:9e:8a:c6:b9:30:14:53:0a:2c:36:e7:be:5d:
        a1:0c:96:e5:a8:23:78:a2:81:3c:49:96:e0:ed:36:76:c9:26:
        23:6a:d0:c8:7a:3a:46:c3:81:1e:74:4e:17:fd:99:26:fd:15:
        25:bc:69:5b:f7:52:24:fb:63:4d:07:34:e2:71:70:2a:c9:ae:
        fd:2f:10:ab:a7:9e:cd:4b:62:19:20:72:0b:cb:64:9b:dd:06:
        59:cf:a9:51:a2:22:d4:13:23:07:68:81:7b:b3:3f:6b:1f:f9:
        00:36
-----BEGIN CERTIFICATE-----
MIICjDCCAfWgAwIBAgICAXowDQYJKoZIhvcNAQEMBQAwXTELMAkGA1UEBhMCVUcx
DzANBgNVBAcTBlRyb3BpYzEPMA0GA1UEChMGVXRvcGlhMRMwEQYDVQQLEwpSZWxh
eGF0aW9uMRcwFQYDVQQDEw50aGUgZXhwaXJlZCBDQTAeFw0xMTEyMTUyMjI0Mzda
Fw0yNTA4MjMyMjI0MzdaMG4xCzAJBgNVBAYTAlVHMQ8wDQYDVQQHEwZUcm9waWMx
DzANBgNVBAoTBlV0b3BpYTETMBEGA1UECxMKUmVsYXhhdGlvbjEoMCYGA1UEAxMf
ZXhwaXJlZCBjbGllbnQgd2l0aCBzaGEzODQgaGFzaDCBnzANBgkqhkiG9w0BAQEF
AAOBjQAwgYkCgYEAsBGxfjgJoif2Fmj9CMqgh6+8xUgDWjvdUBF4VwGSPJJuwLeH
uFUv9XD3oxPI1Js79DNb0deXnTMm6f5eYSal6m9YXw7Ej4dK6W828qGOKui8bQPJ
SLGw3cbfHKWdozP6VrOejkFHGRSusE2uU673Ed5nGoccK3yxFQvIzbgsO70CAwEA
AaNKMEgwEQYJYIZIAYb4QgEBBAQDAgWgMDMGCWCGSAGG+EIBDQQmFiRPcGVuU1NM
IEdlbmVyYXRlZCBDbGllbnQgQ2VydGlmaWNhdGUwDQYJKoZIhvcNAQEMBQADgYEA
dUY9XKmV9GZbZVxsFDdR8jBFTyymC7Ceisa5MBRTCiw2575doQyW5agjeKKBPEmW
4O02dskmI2rQyHo6RsOBHnROF/2ZJv0VJbxpW/dSJPtjTQc04nFwKsmu/S8Qq6ee
zUtiGSByC8tkm90GWc+pUaIi1BMjB2iBe7M/ax/5ADY=
-----END CERTIFICATE-----
