Certificate:
    Data:
        Version: 3 (0x2)
        Serial Number: 374 (0x176)
        Signature Algorithm: sha1WithRSAEncryption
        Issuer: C=UG, L=Tropic, O=Utopia, OU=Relaxation, CN=the expired CA
        Validity
            Not Before: Dec 15 22:24:34 2011 GMT
            Not After : Aug 23 22:24:34 2025 GMT
        Subject: C=UG, L=Tropic, O=Utopia, OU=Relaxation, CN=expired client
        Subject Public Key Info:
            Public Key Algorithm: rsaEncryption
            RSA Public Key: (1024 bit)
                Modulus (1024 bit):
                    00:ef:db:4f:e5:75:42:0c:5a:c0:ed:b6:d0:1d:b5:
                    67:18:5a:3b:f1:7e:c8:c6:da:f9:f5:6a:b9:9f:1a:
                    5a:c0:71:ea:26:87:82:00:ee:e1:b6:5c:4a:7b:54:
                    9e:20:5a:75:ef:5d:cb:7c:88:40:26:94:65:84:51:
                    3c:4c:ea:0d:ab:d1:a8:32:a4:27:82:07:70:d3:10:
                    8a:13:52:8f:4e:99:22:93:c3:02:bf:f2:6d:fe:95:
                    bd:67:f9:19:d3:9e:4f:71:71:e3:a5:24:ad:d7:fc:
                    57:47:a1:de:32:85:bf:43:3a:8a:d1:c2:7d:79:12:
                    89:24:e4:a5:0b:33:a5:98:17
                Exponent: 65537 (0x10001)
        X509v3 extensions:
            Netscape Cert Type: 
                SSL Client, S/MIME
            Netscape Comment: 
                OpenSSL Generated Client Certificate
    Signature Algorithm: sha1WithRSAEncryption
        1f:40:c6:2d:7f:a7:53:28:38:5d:ac:2c:d3:81:23:de:2c:66:
        1c:0d:1f:c3:28:a0:0f:b6:6a:c3:0e:e1:83:cb:86:fa:25:79:
        b9:70:82:14:66:de:52:cc:9b:76:5c:66:89:5b:60:67:db:22:
        a6:89:f8:7e:83:92:bb:b9:a9:69:20:58:59:03:16:3c:63:9b:
        5d:9e:98:e5:b0:6c:dd:2a:56:59:03:69:1e:a3:b1:03:28:03:
        91:f5:55:19:45:70:27:18:bf:e5:9d:c7:03:fb:40:57:ed:21:
        28:0f:43:55:0c:03:d7:f9:e1:d8:51:2d:b7:7b:b0:20:eb:dd:
        a3:af
-----BEGIN CERTIFICATE-----
MIICezCCAeSgAwIBAgICAXYwDQYJKoZIhvcNAQEFBQAwXTELMAkGA1UEBhMCVUcx
DzANBgNVBAcTBlRyb3BpYzEPMA0GA1UEChMGVXRvcGlhMRMwEQYDVQQLEwpSZWxh
eGF0aW9uMRcwFQYDVQQDEw50aGUgZXhwaXJlZCBDQTAeFw0xMTEyMTUyMjI0MzRa
Fw0yNTA4MjMyMjI0MzRaMF0xCzAJBgNVBAYTAlVHMQ8wDQYDVQQHEwZUcm9waWMx
DzANBgNVBAoTBlV0b3BpYTETMBEGA1UECxMKUmVsYXhhdGlvbjEXMBUGA1UEAxMO
ZXhwaXJlZCBjbGllbnQwgZ8wDQYJKoZIhvcNAQEBBQADgY0AMIGJAoGBAO/bT+V1
QgxawO220B21ZxhaO/F+yMba+fVquZ8aWsBx6iaHggDu4bZcSntUniBade9dy3yI
QCaUZYRRPEzqDavRqDKkJ4IHcNMQihNSj06ZIpPDAr/ybf6VvWf5GdOeT3Fx46Uk
rdf8V0eh3jKFv0M6itHCfXkSiSTkpQszpZgXAgMBAAGjSjBIMBEGCWCGSAGG+EIB
AQQEAwIFoDAzBglghkgBhvhCAQ0EJhYkT3BlblNTTCBHZW5lcmF0ZWQgQ2xpZW50
IENlcnRpZmljYXRlMA0GCSqGSIb3DQEBBQUAA4GBAB9Axi1/p1MoOF2sLNOBI94s
ZhwNH8MooA+2asMO4YPLhvoleblwghRm3lLMm3ZcZolbYGfbIqaJ+H6Dkru5qWkg
WFkDFjxjm12emOWwbN0qVlkDaR6jsQMoA5H1VRlFcCcYv+WdxwP7QFftISgPQ1UM
A9f54dhRLbd7sCDr3aOv
-----END CERTIFICATE-----
