Certificate:
    Data:
        Version: 3 (0x2)
        Serial Number: 392 (0x188)
        Signature Algorithm: sha1WithRSAEncryption
        Issuer: C=UG, L=Tropic, O=Utopia, OU=Relaxation, CN=the trusted CA
        Validity
            Not Before: Dec 15 22:24:16 2011 GMT
            Not After : Aug 23 22:24:16 2025 GMT
        Subject: C=UG, L=Tropic, O=Utopia, OU=Relaxation, CN=pchip10.cern.ch
        Subject Public Key Info:
            Public Key Algorithm: rsaEncryption
            RSA Public Key: (1024 bit)
                Modulus (1024 bit):
                    00:b5:50:26:2d:be:21:c7:39:f8:9e:f8:f1:d4:56:
                    b4:60:8d:08:87:e9:54:ce:20:46:2c:63:0c:09:a0:
                    2c:a5:c6:f4:06:95:57:d2:0d:44:fa:7b:67:8f:bd:
                    2a:cb:06:29:d1:d5:cd:27:f9:6d:1c:8d:ca:d6:30:
                    b5:06:58:d1:59:97:b0:c8:7e:b8:f7:83:20:7e:ef:
                    74:27:48:88:3c:81:e4:67:0d:17:98:12:4d:1e:a4:
                    4b:3a:d5:6e:be:4a:ef:be:c3:0b:c4:14:51:25:7a:
                    7e:68:49:aa:ed:3a:0c:43:d9:8d:83:d6:e3:13:43:
                    6b:67:35:48:ec:82:e2:8f:71
                Exponent: 65537 (0x10001)
        X509v3 extensions:
            Netscape Cert Type: 
                SSL Server
            Netscape Comment: 
                OpenSSL Generated Server Certificate
    Signature Algorithm: sha1WithRSAEncryption
        78:6e:9c:9f:6f:a2:ab:3e:e7:67:ff:84:58:6e:a2:cc:22:c8:
        b0:de:b8:3f:57:d1:21:44:b3:86:7b:47:f6:ce:3f:50:d2:21:
        6d:78:56:1e:31:6a:5a:c7:b7:87:c1:f8:05:c3:fe:8a:40:3f:
        e9:5a:16:a2:6f:22:82:2b:57:5c:44:50:70:80:bf:77:29:81:
        08:5d:6b:d3:f9:6c:c1:38:27:32:0a:07:6f:5e:8d:57:60:48:
        d7:b6:44:6f:1b:63:bf:8d:43:3f:ce:6b:c5:b4:fb:9d:60:31:
        e8:68:8e:df:60:2e:0c:5f:e1:71:cd:22:2f:50:be:83:f0:1f:
        46:76
-----BEGIN CERTIFICATE-----
MIICfDCCAeWgAwIBAgICAYgwDQYJKoZIhvcNAQEFBQAwXTELMAkGA1UEBhMCVUcx
DzANBgNVBAcTBlRyb3BpYzEPMA0GA1UEChMGVXRvcGlhMRMwEQYDVQQLEwpSZWxh
eGF0aW9uMRcwFQYDVQQDEw50aGUgdHJ1c3RlZCBDQTAeFw0xMTEyMTUyMjI0MTZa
Fw0yNTA4MjMyMjI0MTZaMF4xCzAJBgNVBAYTAlVHMQ8wDQYDVQQHEwZUcm9waWMx
DzANBgNVBAoTBlV0b3BpYTETMBEGA1UECxMKUmVsYXhhdGlvbjEYMBYGA1UEAxMP
cGNoaXAxMC5jZXJuLmNoMIGfMA0GCSqGSIb3DQEBAQUAA4GNADCBiQKBgQC1UCYt
viHHOfie+PHUVrRgjQiH6VTOIEYsYwwJoCylxvQGlVfSDUT6e2ePvSrLBinR1c0n
+W0cjcrWMLUGWNFZl7DIfrj3gyB+73QnSIg8geRnDReYEk0epEs61W6+Su++wwvE
FFElen5oSartOgxD2Y2D1uMTQ2tnNUjsguKPcQIDAQABo0owSDARBglghkgBhvhC
AQEEBAMCBkAwMwYJYIZIAYb4QgENBCYWJE9wZW5TU0wgR2VuZXJhdGVkIFNlcnZl
ciBDZXJ0aWZpY2F0ZTANBgkqhkiG9w0BAQUFAAOBgQB4bpyfb6KrPudn/4RYbqLM
Isiw3rg/V9EhRLOGe0f2zj9Q0iFteFYeMWpax7eHwfgFw/6KQD/pWhaibyKCK1dc
RFBwgL93KYEIXWvT+WzBOCcyCgdvXo1XYEjXtkRvG2O/jUM/zmvFtPudYDHoaI7f
YC4MX+FxzSIvUL6D8B9Gdg==
-----END CERTIFICATE-----
