Certificate:
    Data:
        Version: 3 (0x2)
        Serial Number: 381 (0x17d)
        Signature Algorithm: sha1WithRSAEncryption
        Issuer: C=UG, L=Tropic, O=Utopia, OU=Relaxation, CN=the nokeyusage CA
        Validity
            Not Before: Jan  1 00:00:00 2035 GMT
            Not After : Aug 23 22:24:43 2025 GMT
        Subject: C=UG, L=Tropic, O=Utopia, OU=Relaxation, CN=nokeyusage client future
        Subject Public Key Info:
            Public Key Algorithm: rsaEncryption
            RSA Public Key: (1024 bit)
                Modulus (1024 bit):
                    00:e9:00:36:db:87:7f:b7:66:0e:be:e2:0d:4e:e9:
                    5b:d8:76:c3:e3:21:7e:6b:c7:b3:de:4e:e1:14:4b:
                    ac:8f:1d:9b:c0:0a:83:c5:c1:48:13:4e:95:c4:4c:
                    f0:e6:24:84:1e:87:41:0f:f4:25:b3:fb:26:e5:bb:
                    14:83:38:0c:2d:6c:e2:e0:11:16:af:00:c0:93:f2:
                    66:d4:4c:1c:3f:a9:37:84:fb:37:0f:cc:a8:c5:09:
                    09:78:eb:21:81:2c:df:7a:78:76:9e:d6:62:df:d4:
                    7b:6c:08:53:a7:99:9d:4e:a6:df:5d:08:14:20:72:
                    e7:4a:79:d3:8e:57:c1:58:c5
                Exponent: 65537 (0x10001)
        X509v3 extensions:
            Netscape Cert Type: 
                SSL Client, S/MIME
            Netscape Comment: 
                OpenSSL Generated Client Certificate
    Signature Algorithm: sha1WithRSAEncryption
        28:7d:ab:93:5a:46:20:7d:56:71:8c:b1:89:dc:78:07:33:3c:
        52:c7:f2:b1:6c:07:68:c5:16:ea:8b:9f:92:b7:cc:83:d0:22:
        bd:37:c2:07:db:bf:08:e5:05:03:71:12:65:a9:92:d5:77:2c:
        ad:7f:e1:bb:60:19:98:bd:77:a6:95:c4:9c:01:13:8d:ef:25:
        65:18:1e:6a:b7:50:af:90:86:21:93:31:44:f8:43:c9:e1:cd:
        dc:46:3e:a8:61:83:2b:0a:d0:22:55:0a:1a:6c:d4:17:18:22:
        e5:62:c0:f3:29:d4:5a:77:0a:bb:f2:c6:03:48:d7:1e:52:0a:
        f3:56
-----BEGIN CERTIFICATE-----
MIICiDCCAfGgAwIBAgICAX0wDQYJKoZIhvcNAQEFBQAwYDELMAkGA1UEBhMCVUcx
DzANBgNVBAcTBlRyb3BpYzEPMA0GA1UEChMGVXRvcGlhMRMwEQYDVQQLEwpSZWxh
eGF0aW9uMRowGAYDVQQDExF0aGUgbm9rZXl1c2FnZSBDQTAeFw0zNTAxMDEwMDAw
MDBaFw0yNTA4MjMyMjI0NDNaMGcxCzAJBgNVBAYTAlVHMQ8wDQYDVQQHEwZUcm9w
aWMxDzANBgNVBAoTBlV0b3BpYTETMBEGA1UECxMKUmVsYXhhdGlvbjEhMB8GA1UE
AxMYbm9rZXl1c2FnZSBjbGllbnQgZnV0dXJlMIGfMA0GCSqGSIb3DQEBAQUAA4GN
ADCBiQKBgQDpADbbh3+3Zg6+4g1O6VvYdsPjIX5rx7PeTuEUS6yPHZvACoPFwUgT
TpXETPDmJIQeh0EP9CWz+ybluxSDOAwtbOLgERavAMCT8mbUTBw/qTeE+zcPzKjF
CQl46yGBLN96eHae1mLf1HtsCFOnmZ1Opt9dCBQgcudKedOOV8FYxQIDAQABo0ow
SDARBglghkgBhvhCAQEEBAMCBaAwMwYJYIZIAYb4QgENBCYWJE9wZW5TU0wgR2Vu
ZXJhdGVkIENsaWVudCBDZXJ0aWZpY2F0ZTANBgkqhkiG9w0BAQUFAAOBgQAofauT
WkYgfVZxjLGJ3HgHMzxSx/KxbAdoxRbqi5+St8yD0CK9N8IH278I5QUDcRJlqZLV
dyytf+G7YBmYvXemlcScARON7yVlGB5qt1CvkIYhkzFE+EPJ4c3cRj6oYYMrCtAi
VQoabNQXGCLlYsDzKdRadwq78sYDSNceUgrzVg==
-----END CERTIFICATE-----
