Certificate:
    Data:
        Version: 3 (0x2)
        Serial Number: 376 (0x178)
        Signature Algorithm: md5WithRSAEncryption
        Issuer: C=UG, L=Tropic, O=Utopia, OU=Relaxation, CN=the nokeyusage CA
        Validity
            Not Before: Jan  1 00:00:00 2035 GMT
            Not After : May  3 17:38:12 2038 GMT
        Subject: C=UG, L=Tropic, O=Utopia, OU=Relaxation, CN=nokeyusage client future
        Subject Public Key Info:
            Public Key Algorithm: rsaEncryption
            RSA Public Key: (1024 bit)
                Modulus (1024 bit):
                    00:a8:82:d2:94:71:fd:06:d3:b6:a7:04:75:ce:98:
                    82:13:c9:d0:16:f9:80:59:a7:0c:80:c3:02:ef:94:
                    45:ac:ed:f8:d8:26:43:0d:5f:7e:27:b3:b4:4c:00:
                    ca:ef:7f:89:5f:7a:a6:93:6d:39:1a:03:b1:73:78:
                    ea:02:e8:31:3e:b9:85:4a:da:0e:c0:00:04:a3:30:
                    de:95:c6:95:aa:83:d7:67:69:b7:e7:32:02:04:6a:
                    e7:da:5e:07:f4:0c:17:76:c8:76:ad:34:24:df:a3:
                    ae:65:4b:ee:d9:08:44:7d:b4:35:24:b5:4a:a9:49:
                    06:32:51:c9:84:f7:8f:b0:39
                Exponent: 65537 (0x10001)
        X509v3 extensions:
            Netscape Cert Type: 
                SSL Client, S/MIME
            Netscape Comment: 
                OpenSSL Generated Client Certificate
    Signature Algorithm: md5WithRSAEncryption
        dc:1b:1a:c1:47:ea:6e:50:1a:c1:49:ba:38:ff:0c:89:38:7e:
        71:26:43:15:72:b7:b5:25:cf:ca:25:8c:d7:4a:b1:70:03:5f:
        7d:1b:de:8b:b7:d2:d2:7a:b6:9f:f7:83:08:14:84:91:bc:9d:
        4f:be:b3:c0:ce:5b:b7:cb:d1:30:13:d6:fb:df:41:9e:6e:0c:
        c3:13:03:76:71:3e:86:f6:81:83:9b:4f:0a:59:f4:22:02:15:
        4f:e8:ce:a7:51:b8:05:13:1e:a9:f3:cc:5e:69:66:8f:de:91:
        df:8b:4a:6f:89:36:d7:b1:95:8e:c6:be:ad:f0:61:47:66:ef:
        1a:5a
-----BEGIN CERTIFICATE-----
MIICiDCCAfGgAwIBAgICAXgwDQYJKoZIhvcNAQEEBQAwYDELMAkGA1UEBhMCVUcx
DzANBgNVBAcTBlRyb3BpYzEPMA0GA1UEChMGVXRvcGlhMRMwEQYDVQQLEwpSZWxh
eGF0aW9uMRowGAYDVQQDExF0aGUgbm9rZXl1c2FnZSBDQTAeFw0zNTAxMDEwMDAw
MDBaFw0zODA1MDMxNzM4MTJaMGcxCzAJBgNVBAYTAlVHMQ8wDQYDVQQHEwZUcm9w
aWMxDzANBgNVBAoTBlV0b3BpYTETMBEGA1UECxMKUmVsYXhhdGlvbjEhMB8GA1UE
AxMYbm9rZXl1c2FnZSBjbGllbnQgZnV0dXJlMIGfMA0GCSqGSIb3DQEBAQUAA4GN
ADCBiQKBgQCogtKUcf0G07anBHXOmIITydAW+YBZpwyAwwLvlEWs7fjYJkMNX34n
s7RMAMrvf4lfeqaTbTkaA7FzeOoC6DE+uYVK2g7AAASjMN6VxpWqg9dnabfnMgIE
aufaXgf0DBd2yHatNCTfo65lS+7ZCER9tDUktUqpSQYyUcmE94+wOQIDAQABo0ow
SDARBglghkgBhvhCAQEEBAMCBaAwMwYJYIZIAYb4QgENBCYWJE9wZW5TU0wgR2Vu
ZXJhdGVkIENsaWVudCBDZXJ0aWZpY2F0ZTANBgkqhkiG9w0BAQQFAAOBgQDcGxrB
R+puUBrBSbo4/wyJOH5xJkMVcre1Jc/KJYzXSrFwA199G96Lt9LSeraf94MIFISR
vJ1PvrPAzlu3y9EwE9b730GebgzDEwN2cT6G9oGDm08KWfQiAhVP6M6nUbgFEx6p
88xeaWaP3pHfi0pviTbXsZWOxr6t8GFHZu8aWg==
-----END CERTIFICATE-----
