Certificate:
    Data:
        Version: 3 (0x2)
        Serial Number: 377 (0x179)
        Signature Algorithm: sha256WithRSAEncryption
        Issuer: C=UG, L=Tropic, O=Utopia, OU=Relaxation, CN=the nokeyusage CA
        Validity
            Not Before: Dec 15 22:24:42 2011 GMT
            Not After : Aug 23 22:24:42 2025 GMT
        Subject: C=UG, L=Tropic, O=Utopia, OU=Relaxation, CN=nokeyusage client with sha256 hash
        Subject Public Key Info:
            Public Key Algorithm: rsaEncryption
            RSA Public Key: (1024 bit)
                Modulus (1024 bit):
                    00:cb:0b:5a:49:df:6c:b8:37:97:d8:ae:af:97:6a:
                    6e:a4:bb:cb:77:a7:8f:f7:aa:5b:57:3c:7c:87:16:
                    99:e5:8e:23:21:50:ea:09:94:ed:5f:07:dd:af:6a:
                    f2:67:e3:4e:77:ea:c7:68:f9:57:33:64:2b:84:62:
                    8c:a8:75:cd:f2:52:23:d2:44:66:8b:42:74:61:6b:
                    38:a4:e0:4b:4f:eb:68:44:9c:a6:29:5a:9c:b3:90:
                    57:de:ae:70:67:7f:5e:76:11:e1:8c:cd:7e:81:6b:
                    2a:92:e5:37:8f:24:30:32:ab:b1:4f:f2:a3:cf:5d:
                    a7:d7:73:09:22:6a:af:09:93
                Exponent: 65537 (0x10001)
        X509v3 extensions:
            Netscape Cert Type: 
                SSL Client, S/MIME
            Netscape Comment: 
                OpenSSL Generated Client Certificate
    Signature Algorithm: sha256WithRSAEncryption
        1e:06:20:fd:91:2c:56:22:c5:75:ee:02:57:59:19:ad:ad:23:
        4d:47:23:6d:4b:59:8a:20:a2:e0:7c:d8:ae:8a:c9:12:bd:2a:
        a9:49:0a:0e:20:d3:af:a9:73:b7:4b:59:d3:d3:55:36:31:e4:
        18:a1:cd:71:89:e8:5c:ec:e1:17:b9:3a:c0:49:c6:51:01:4b:
        fe:9d:e9:9b:79:49:dc:46:12:47:56:99:e9:f9:1a:2e:e6:00:
        96:40:46:fb:40:3b:63:ed:09:6c:64:87:5f:a7:51:b8:b1:aa:
        5d:25:b0:ed:dc:eb:8c:7d:12:42:34:6a:a5:57:17:42:66:ec:
        7d:32
-----BEGIN CERTIFICATE-----
MIICkjCCAfugAwIBAgICAXkwDQYJKoZIhvcNAQELBQAwYDELMAkGA1UEBhMCVUcx
DzANBgNVBAcTBlRyb3BpYzEPMA0GA1UEChMGVXRvcGlhMRMwEQYDVQQLEwpSZWxh
eGF0aW9uMRowGAYDVQQDExF0aGUgbm9rZXl1c2FnZSBDQTAeFw0xMTEyMTUyMjI0
NDJaFw0yNTA4MjMyMjI0NDJaMHExCzAJBgNVBAYTAlVHMQ8wDQYDVQQHEwZUcm9w
aWMxDzANBgNVBAoTBlV0b3BpYTETMBEGA1UECxMKUmVsYXhhdGlvbjErMCkGA1UE
AxMibm9rZXl1c2FnZSBjbGllbnQgd2l0aCBzaGEyNTYgaGFzaDCBnzANBgkqhkiG
9w0BAQEFAAOBjQAwgYkCgYEAywtaSd9suDeX2K6vl2pupLvLd6eP96pbVzx8hxaZ
5Y4jIVDqCZTtXwfdr2ryZ+NOd+rHaPlXM2QrhGKMqHXN8lIj0kRmi0J0YWs4pOBL
T+toRJymKVqcs5BX3q5wZ39edhHhjM1+gWsqkuU3jyQwMquxT/Kjz12n13MJImqv
CZMCAwEAAaNKMEgwEQYJYIZIAYb4QgEBBAQDAgWgMDMGCWCGSAGG+EIBDQQmFiRP
cGVuU1NMIEdlbmVyYXRlZCBDbGllbnQgQ2VydGlmaWNhdGUwDQYJKoZIhvcNAQEL
BQADgYEAHgYg/ZEsViLFde4CV1kZra0jTUcjbUtZiiCi4HzYrorJEr0qqUkKDiDT
r6lzt0tZ09NVNjHkGKHNcYnoXOzhF7k6wEnGUQFL/p3pm3lJ3EYSR1aZ6fkaLuYA
lkBG+0A7Y+0JbGSHX6dRuLGqXSWw7dzrjH0SQjRqpVcXQmbsfTI=
-----END CERTIFICATE-----
