Certificate:
    Data:
        Version: 3 (0x2)
        Serial Number: 377 (0x179)
        Signature Algorithm: md5WithRSAEncryption
        Issuer: C=UG, L=Tropic, O=Utopia, OU=Relaxation, CN=the nokeyusage CA
        Validity
            Not Before: Dec 16 17:38:12 2010 GMT
            Not After : Dec 15 17:38:12 2010 GMT
        Subject: C=UG, L=Tropic, O=Utopia, OU=Relaxation, CN=nokeyusage client expired
        Subject Public Key Info:
            Public Key Algorithm: rsaEncryption
            RSA Public Key: (1024 bit)
                Modulus (1024 bit):
                    00:bb:05:83:11:43:f2:dd:03:93:3c:5a:17:85:58:
                    38:df:9a:8a:6a:87:82:79:f7:87:7c:1e:0b:26:b2:
                    72:93:86:38:16:e8:b4:d9:ac:5f:3c:bc:c5:b5:d9:
                    a0:bb:43:fc:5d:3a:23:19:f8:b6:41:9d:2d:38:f6:
                    6b:dc:2e:ae:a3:61:55:29:3b:f4:74:ba:4e:a5:e8:
                    04:22:49:1d:6c:57:82:c8:71:87:bc:60:b2:04:10:
                    7a:ea:e8:c2:2c:8f:7f:e7:7f:c5:1c:2a:72:32:b4:
                    95:7d:c1:84:ad:b6:60:e0:1f:6f:cb:37:b8:6b:b7:
                    ce:b3:5f:a4:78:a8:dc:f5:83
                Exponent: 65537 (0x10001)
        X509v3 extensions:
            Netscape Cert Type: 
                SSL Client, S/MIME
            Netscape Comment: 
                OpenSSL Generated Client Certificate
    Signature Algorithm: md5WithRSAEncryption
        ad:32:ea:46:3c:82:4e:62:bb:c6:49:71:7e:51:67:70:13:92:
        de:9e:d9:a7:94:eb:96:ae:0b:63:d6:54:6d:93:7e:8d:d6:25:
        1f:f5:8d:c9:aa:44:d3:ae:f5:7a:29:34:fb:c0:8e:b1:6a:b3:
        51:d7:a1:e9:12:fa:3b:b3:90:30:a0:68:6d:13:e7:0b:12:62:
        07:da:e3:93:88:a3:bd:03:36:b9:0c:f6:f4:82:a3:bf:74:f3:
        84:02:9c:f6:c2:59:7d:fb:8c:f3:9c:cc:52:91:7b:7b:7f:44:
        6a:e2:30:ad:7a:18:0d:2a:d5:6e:5a:22:3f:87:a5:82:ef:e8:
        b5:53
-----BEGIN CERTIFICATE-----
MIICiTCCAfKgAwIBAgICAXkwDQYJKoZIhvcNAQEEBQAwYDELMAkGA1UEBhMCVUcx
DzANBgNVBAcTBlRyb3BpYzEPMA0GA1UEChMGVXRvcGlhMRMwEQYDVQQLEwpSZWxh
eGF0aW9uMRowGAYDVQQDExF0aGUgbm9rZXl1c2FnZSBDQTAeFw0xMDEyMTYxNzM4
MTJaFw0xMDEyMTUxNzM4MTJaMGgxCzAJBgNVBAYTAlVHMQ8wDQYDVQQHEwZUcm9w
aWMxDzANBgNVBAoTBlV0b3BpYTETMBEGA1UECxMKUmVsYXhhdGlvbjEiMCAGA1UE
AxMZbm9rZXl1c2FnZSBjbGllbnQgZXhwaXJlZDCBnzANBgkqhkiG9w0BAQEFAAOB
jQAwgYkCgYEAuwWDEUPy3QOTPFoXhVg435qKaoeCefeHfB4LJrJyk4Y4Fui02axf
PLzFtdmgu0P8XTojGfi2QZ0tOPZr3C6uo2FVKTv0dLpOpegEIkkdbFeCyHGHvGCy
BBB66ujCLI9/53/FHCpyMrSVfcGErbZg4B9vyze4a7fOs1+keKjc9YMCAwEAAaNK
MEgwEQYJYIZIAYb4QgEBBAQDAgWgMDMGCWCGSAGG+EIBDQQmFiRPcGVuU1NMIEdl
bmVyYXRlZCBDbGllbnQgQ2VydGlmaWNhdGUwDQYJKoZIhvcNAQEEBQADgYEArTLq
RjyCTmK7xklxflFncBOS3p7Zp5Trlq4LY9ZUbZN+jdYlH/WNyapE0671eik0+8CO
sWqzUdeh6RL6O7OQMKBobRPnCxJiB9rjk4ijvQM2uQz29IKjv3TzhAKc9sJZffuM
85zMUpF7e39EauIwrXoYDSrVbloiP4elgu/otVM=
-----END CERTIFICATE-----
