Certificate:
    Data:
        Version: 3 (0x2)
        Serial Number: 379 (0x17b)
        Signature Algorithm: md5WithRSAEncryption
        Issuer: C=UG, L=Tropic, O=Utopia, OU=Relaxation, CN=the nokeyusage CA
        Validity
            Not Before: Dec 16 17:38:13 2010 GMT
            Not After : May  3 17:38:13 2038 GMT
        Subject: C=UG, L=Tropic, O=http://slash.slash.edu:7656/testing, OU=Relaxation, CN=nokeyusage client slash
        Subject Public Key Info:
            Public Key Algorithm: rsaEncryption
            RSA Public Key: (1024 bit)
                Modulus (1024 bit):
                    00:b1:85:96:e5:fe:ab:89:b8:94:ea:3f:67:d5:a2:
                    47:a9:7e:c3:ca:2c:52:08:48:7e:79:63:22:21:0e:
                    c2:51:9f:d1:39:3b:63:21:b8:23:5a:b8:b3:be:7e:
                    ff:c2:88:2e:45:0b:c8:19:be:63:7f:f7:f2:06:9e:
                    fd:53:51:d0:b9:cf:fe:0f:56:1b:44:34:cf:e3:ec:
                    aa:06:e8:09:03:7a:9e:7b:68:f6:6c:f4:c3:85:c8:
                    86:ec:c1:5d:fa:9f:e6:d2:5c:2b:fc:54:94:08:20:
                    0a:97:4c:5d:9f:ae:4c:f4:c9:03:c0:b4:73:93:a6:
                    a3:f1:88:66:0a:75:f3:8b:b1
                Exponent: 65537 (0x10001)
        X509v3 extensions:
            Netscape Cert Type: 
                SSL Client, S/MIME
            Netscape Comment: 
                OpenSSL Generated Client Certificate
    Signature Algorithm: md5WithRSAEncryption
        03:ac:a5:2e:a7:f3:ca:45:3a:18:cc:0c:f6:4c:db:cd:59:ec:
        96:a0:5b:02:8a:12:bd:72:af:5b:97:c1:8e:64:db:0b:da:1f:
        e7:39:cc:49:cc:f7:26:39:19:5c:07:5e:bd:e5:10:05:bb:1c:
        3b:ba:b9:c1:49:f7:36:ee:3b:04:ab:a2:ac:fc:03:bb:b5:77:
        93:9f:71:c2:3f:bf:ed:74:f7:20:b7:85:d4:1b:a7:01:16:80:
        4f:56:28:9e:84:55:1b:37:7b:46:fd:da:23:53:5f:ef:a4:bc:
        33:ee:7e:e6:9f:a3:97:ca:ac:12:55:16:8b:81:55:36:95:b5:
        73:24
-----BEGIN CERTIFICATE-----
MIICpTCCAg6gAwIBAgICAXswDQYJKoZIhvcNAQEEBQAwYDELMAkGA1UEBhMCVUcx
DzANBgNVBAcTBlRyb3BpYzEPMA0GA1UEChMGVXRvcGlhMRMwEQYDVQQLEwpSZWxh
eGF0aW9uMRowGAYDVQQDExF0aGUgbm9rZXl1c2FnZSBDQTAeFw0xMDEyMTYxNzM4
MTNaFw0zODA1MDMxNzM4MTNaMIGDMQswCQYDVQQGEwJVRzEPMA0GA1UEBxMGVHJv
cGljMSwwKgYDVQQKEyNodHRwOi8vc2xhc2guc2xhc2guZWR1Ojc2NTYvdGVzdGlu
ZzETMBEGA1UECxMKUmVsYXhhdGlvbjEgMB4GA1UEAxMXbm9rZXl1c2FnZSBjbGll
bnQgc2xhc2gwgZ8wDQYJKoZIhvcNAQEBBQADgY0AMIGJAoGBALGFluX+q4m4lOo/
Z9WiR6l+w8osUghIfnljIiEOwlGf0Tk7YyG4I1q4s75+/8KILkULyBm+Y3/38gae
/VNR0LnP/g9WG0Q0z+PsqgboCQN6nnto9mz0w4XIhuzBXfqf5tJcK/xUlAggCpdM
XZ+uTPTJA8C0c5Omo/GIZgp184uxAgMBAAGjSjBIMBEGCWCGSAGG+EIBAQQEAwIF
oDAzBglghkgBhvhCAQ0EJhYkT3BlblNTTCBHZW5lcmF0ZWQgQ2xpZW50IENlcnRp
ZmljYXRlMA0GCSqGSIb3DQEBBAUAA4GBAAOspS6n88pFOhjMDPZM281Z7JagWwKK
Er1yr1uXwY5k2wvaH+c5zEnM9yY5GVwHXr3lEAW7HDu6ucFJ9zbuOwSroqz8A7u1
d5OfccI/v+109yC3hdQbpwEWgE9WKJ6EVRs3e0b92iNTX++kvDPufuafo5fKrBJV
FouBVTaVtXMk
-----END CERTIFICATE-----
