Certificate:
    Data:
        Version: 3 (0x2)
        Serial Number: 375 (0x177)
        Signature Algorithm: md5WithRSAEncryption
        Issuer: C=UG, L=Tropic, O=Utopia, OU=Relaxation, CN=the nokeyusage CA
        Validity
            Not Before: Dec 16 17:38:12 2010 GMT
            Not After : May  3 17:38:12 2038 GMT
        Subject: C=UG, L=Tropic, O=Utopia, OU=Chilling, CN=nokeyusage client with bad DN
        Subject Public Key Info:
            Public Key Algorithm: rsaEncryption
            RSA Public Key: (1024 bit)
                Modulus (1024 bit):
                    00:bc:cf:69:ac:d3:2f:a6:d5:30:b0:16:72:70:ff:
                    15:bb:da:18:03:82:09:61:2b:e6:67:1f:44:d6:93:
                    1b:e5:9d:6b:2e:d9:87:07:44:4e:86:1d:44:8c:bd:
                    3f:cd:2f:b3:db:1e:36:85:55:5a:29:50:f6:cc:50:
                    8f:6d:c2:14:9f:34:5e:f3:63:79:8f:6e:53:af:ed:
                    2e:42:90:84:78:4b:09:e7:1b:50:26:ba:80:f7:3c:
                    9c:f3:b4:a4:f3:fc:27:73:c8:b9:a0:36:2d:a9:b9:
                    8a:f8:dd:c5:e6:b2:5b:35:ba:cb:d8:28:81:77:73:
                    8a:a9:8f:0d:7c:99:13:ab:3d
                Exponent: 65537 (0x10001)
        X509v3 extensions:
            Netscape Cert Type: 
                SSL Client, S/MIME
            Netscape Comment: 
                OpenSSL Generated Client Certificate
    Signature Algorithm: md5WithRSAEncryption
        75:48:4a:18:6a:b0:1f:8f:bb:35:6e:0b:10:f1:d3:1a:09:0b:
        33:29:15:94:6c:61:2d:29:d2:83:7d:bb:08:95:9c:eb:b6:7a:
        f9:49:33:0b:0f:ee:e7:c8:b5:a0:18:63:06:a7:69:bf:fd:5d:
        6b:19:3a:7f:ec:54:2a:0c:47:4e:1b:da:0e:b7:bc:dd:06:af:
        88:05:8a:9c:ea:97:96:9f:92:a3:e2:26:1c:dc:b1:e0:3d:63:
        8f:8d:82:ae:bc:db:be:81:a7:3b:41:e6:f2:db:86:5c:e7:54:
        4b:40:fe:7a:1e:cf:cd:96:72:49:6d:36:41:35:52:b1:9d:cf:
        15:67
-----BEGIN CERTIFICATE-----
MIICizCCAfSgAwIBAgICAXcwDQYJKoZIhvcNAQEEBQAwYDELMAkGA1UEBhMCVUcx
DzANBgNVBAcTBlRyb3BpYzEPMA0GA1UEChMGVXRvcGlhMRMwEQYDVQQLEwpSZWxh
eGF0aW9uMRowGAYDVQQDExF0aGUgbm9rZXl1c2FnZSBDQTAeFw0xMDEyMTYxNzM4
MTJaFw0zODA1MDMxNzM4MTJaMGoxCzAJBgNVBAYTAlVHMQ8wDQYDVQQHEwZUcm9w
aWMxDzANBgNVBAoTBlV0b3BpYTERMA8GA1UECxMIQ2hpbGxpbmcxJjAkBgNVBAMT
HW5va2V5dXNhZ2UgY2xpZW50IHdpdGggYmFkIEROMIGfMA0GCSqGSIb3DQEBAQUA
A4GNADCBiQKBgQC8z2ms0y+m1TCwFnJw/xW72hgDgglhK+ZnH0TWkxvlnWsu2YcH
RE6GHUSMvT/NL7PbHjaFVVopUPbMUI9twhSfNF7zY3mPblOv7S5CkIR4SwnnG1Am
uoD3PJzztKTz/CdzyLmgNi2puYr43cXmsls1usvYKIF3c4qpjw18mROrPQIDAQAB
o0owSDARBglghkgBhvhCAQEEBAMCBaAwMwYJYIZIAYb4QgENBCYWJE9wZW5TU0wg
R2VuZXJhdGVkIENsaWVudCBDZXJ0aWZpY2F0ZTANBgkqhkiG9w0BAQQFAAOBgQB1
SEoYarAfj7s1bgsQ8dMaCQszKRWUbGEtKdKDfbsIlZzrtnr5STMLD+7nyLWgGGMG
p2m//V1rGTp/7FQqDEdOG9oOt7zdBq+IBYqc6peWn5Kj4iYc3LHgPWOPjYKuvNu+
gac7Qeby24Zc51RLQP56Hs/NlnJJbTZBNVKxnc8VZw==
-----END CERTIFICATE-----
