Certificate:
    Data:
        Version: 3 (0x2)
        Serial Number: 379 (0x17b)
        Signature Algorithm: sha512WithRSAEncryption
        Issuer: C=UG, L=Tropic, O=Utopia, OU=Relaxation, CN=the nokeyusage CA
        Validity
            Not Before: Dec 15 22:24:42 2011 GMT
            Not After : Aug 23 22:24:42 2025 GMT
        Subject: C=UG, L=Tropic, O=Utopia, OU=Relaxation, CN=nokeyusage client with sha512 hash
        Subject Public Key Info:
            Public Key Algorithm: rsaEncryption
            RSA Public Key: (1024 bit)
                Modulus (1024 bit):
                    00:ed:1c:e1:42:7c:3a:09:78:72:73:d6:f9:7f:a0:
                    99:bd:4c:8c:9c:64:d8:e6:53:25:b5:cb:d3:3c:fb:
                    4a:43:6c:c5:b7:86:52:ea:53:db:30:d4:db:42:f2:
                    10:1f:56:46:54:1e:ca:38:68:4c:f5:6e:40:f7:69:
                    08:61:06:d5:eb:12:31:8f:43:43:d6:dd:d0:d5:97:
                    0b:83:bf:01:1d:fc:8b:a0:da:09:2b:b2:a7:1b:03:
                    13:16:cd:a4:3b:5f:4d:cf:da:11:6f:a8:06:e8:cb:
                    18:7f:f5:55:7f:9a:50:f3:83:8b:59:0c:94:55:8f:
                    c7:c7:8f:b6:9d:48:db:67:03
                Exponent: 65537 (0x10001)
        X509v3 extensions:
            Netscape Cert Type: 
                SSL Client, S/MIME
            Netscape Comment: 
                OpenSSL Generated Client Certificate
    Signature Algorithm: sha512WithRSAEncryption
        e4:ec:af:db:d1:68:78:e0:2a:a6:1b:bb:b9:3d:ee:6c:63:f5:
        6e:9b:f6:b4:26:71:33:79:df:e6:4e:a8:13:34:9e:09:42:c9:
        4a:4a:52:aa:b0:ae:56:03:ad:44:26:f9:b8:07:4a:02:e7:b8:
        83:03:29:87:26:10:34:fc:d1:39:25:d0:17:b0:95:43:69:7b:
        11:54:50:18:08:39:4c:cf:ee:a3:2f:f6:57:16:5c:a0:c1:a7:
        ee:0a:58:e0:3d:0b:1b:7b:89:74:f2:10:9a:3a:9c:30:ad:4d:
        17:04:27:db:f4:cc:68:d5:4f:48:fd:2f:b6:01:a7:23:72:4b:
        c1:94
-----BEGIN CERTIFICATE-----
MIICkjCCAfugAwIBAgICAXswDQYJKoZIhvcNAQENBQAwYDELMAkGA1UEBhMCVUcx
DzANBgNVBAcTBlRyb3BpYzEPMA0GA1UEChMGVXRvcGlhMRMwEQYDVQQLEwpSZWxh
eGF0aW9uMRowGAYDVQQDExF0aGUgbm9rZXl1c2FnZSBDQTAeFw0xMTEyMTUyMjI0
NDJaFw0yNTA4MjMyMjI0NDJaMHExCzAJBgNVBAYTAlVHMQ8wDQYDVQQHEwZUcm9w
aWMxDzANBgNVBAoTBlV0b3BpYTETMBEGA1UECxMKUmVsYXhhdGlvbjErMCkGA1UE
AxMibm9rZXl1c2FnZSBjbGllbnQgd2l0aCBzaGE1MTIgaGFzaDCBnzANBgkqhkiG
9w0BAQEFAAOBjQAwgYkCgYEA7RzhQnw6CXhyc9b5f6CZvUyMnGTY5lMltcvTPPtK
Q2zFt4ZS6lPbMNTbQvIQH1ZGVB7KOGhM9W5A92kIYQbV6xIxj0ND1t3Q1ZcLg78B
HfyLoNoJK7KnGwMTFs2kO19Nz9oRb6gG6MsYf/VVf5pQ84OLWQyUVY/Hx4+2nUjb
ZwMCAwEAAaNKMEgwEQYJYIZIAYb4QgEBBAQDAgWgMDMGCWCGSAGG+EIBDQQmFiRP
cGVuU1NMIEdlbmVyYXRlZCBDbGllbnQgQ2VydGlmaWNhdGUwDQYJKoZIhvcNAQEN
BQADgYEA5Oyv29FoeOAqphu7uT3ubGP1bpv2tCZxM3nf5k6oEzSeCULJSkpSqrCu
VgOtRCb5uAdKAue4gwMphyYQNPzROSXQF7CVQ2l7EVRQGAg5TM/uoy/2VxZcoMGn
7gpY4D0LG3uJdPIQmjqcMK1NFwQn2/TMaNVPSP0vtgGnI3JLwZQ=
-----END CERTIFICATE-----
