Certificate:
    Data:
        Version: 3 (0x2)
        Serial Number: 374 (0x176)
        Signature Algorithm: md5WithRSAEncryption
        Issuer: C=UG, L=Tropic, O=Utopia, OU=Relaxation, CN=the nokeyusage CA
        Validity
            Not Before: Dec 16 17:38:09 2010 GMT
            Not After : May  3 17:38:09 2038 GMT
        Subject: C=UG, L=Tropic, O=Utopia, OU=Relaxation, CN=nokeyusage client
        Subject Public Key Info:
            Public Key Algorithm: rsaEncryption
            RSA Public Key: (1024 bit)
                Modulus (1024 bit):
                    00:bc:01:05:94:cd:f1:de:48:a0:f7:12:51:9d:c5:
                    cd:93:65:cc:e8:db:bd:33:0c:5a:e8:ee:91:c9:10:
                    f4:4b:d4:03:69:9b:fe:f3:9e:09:c3:e2:a2:ef:15:
                    61:1e:02:8e:b7:2d:cb:44:a2:d2:f0:83:af:c9:79:
                    6e:69:95:d1:76:c7:af:69:10:be:34:72:8c:52:52:
                    7d:c0:ba:e8:ff:35:f1:71:a1:00:31:c0:f9:82:7e:
                    00:63:89:1b:bd:88:98:87:1d:ab:02:4d:69:a7:1d:
                    65:8c:05:72:ab:3e:76:1f:38:6b:5c:57:b3:e7:b5:
                    40:5d:3e:0a:99:8f:9a:fd:f9
                Exponent: 65537 (0x10001)
        X509v3 extensions:
            Netscape Cert Type: 
                SSL Client, S/MIME
            Netscape Comment: 
                OpenSSL Generated Client Certificate
    Signature Algorithm: md5WithRSAEncryption
        ce:1a:08:84:10:c9:55:3c:69:f9:ed:6a:79:ed:11:97:ec:37:
        b9:2f:f1:9e:69:ff:05:90:61:bb:4f:80:36:ef:7f:96:16:7b:
        ff:45:16:91:a3:66:84:6a:14:21:53:61:f6:77:2e:53:f1:0b:
        86:36:46:c4:c0:62:af:42:00:c6:22:a4:16:21:13:ed:68:62:
        34:1e:1f:d7:a3:f1:26:04:c2:43:68:43:f0:81:91:64:04:37:
        7e:be:91:38:c5:08:cd:67:dc:7a:4a:4e:e0:91:86:8a:5c:9c:
        0b:14:fa:10:f1:fc:83:9d:e1:f8:a6:d7:43:7c:e4:06:92:d2:
        1f:f7
-----BEGIN CERTIFICATE-----
MIICgTCCAeqgAwIBAgICAXYwDQYJKoZIhvcNAQEEBQAwYDELMAkGA1UEBhMCVUcx
DzANBgNVBAcTBlRyb3BpYzEPMA0GA1UEChMGVXRvcGlhMRMwEQYDVQQLEwpSZWxh
eGF0aW9uMRowGAYDVQQDExF0aGUgbm9rZXl1c2FnZSBDQTAeFw0xMDEyMTYxNzM4
MDlaFw0zODA1MDMxNzM4MDlaMGAxCzAJBgNVBAYTAlVHMQ8wDQYDVQQHEwZUcm9w
aWMxDzANBgNVBAoTBlV0b3BpYTETMBEGA1UECxMKUmVsYXhhdGlvbjEaMBgGA1UE
AxMRbm9rZXl1c2FnZSBjbGllbnQwgZ8wDQYJKoZIhvcNAQEBBQADgY0AMIGJAoGB
ALwBBZTN8d5IoPcSUZ3FzZNlzOjbvTMMWujukckQ9EvUA2mb/vOeCcPiou8VYR4C
jrcty0Si0vCDr8l5bmmV0XbHr2kQvjRyjFJSfcC66P818XGhADHA+YJ+AGOJG72I
mIcdqwJNaacdZYwFcqs+dh84a1xXs+e1QF0+CpmPmv35AgMBAAGjSjBIMBEGCWCG
SAGG+EIBAQQEAwIFoDAzBglghkgBhvhCAQ0EJhYkT3BlblNTTCBHZW5lcmF0ZWQg
Q2xpZW50IENlcnRpZmljYXRlMA0GCSqGSIb3DQEBBAUAA4GBAM4aCIQQyVU8afnt
anntEZfsN7kv8Z5p/wWQYbtPgDbvf5YWe/9FFpGjZoRqFCFTYfZ3LlPxC4Y2RsTA
Yq9CAMYipBYhE+1oYjQeH9ej8SYEwkNoQ/CBkWQEN36+kTjFCM1n3HpKTuCRhopc
nAsU+hDx/IOd4fim10N85AaS0h/3
-----END CERTIFICATE-----
